ccopy_reg
_reconstructor
p0
(c__main__
FormalContext
p1
c__builtin__
object
p2
Ntp3
Rp4
(dp5
S'oa_value'
p6
(dp7
I0
(lp8
I2
aI3
aI7
asI1
(lp9
I2
aI3
aI6
asI2
(lp10
I0
aI1
aI3
asI3
(lp11
I2
aI3
aI7
asI4
(lp12
I5
aI9
asI5
(lp13
I3
aI5
aI8
asI6
(lp14
I3
aI4
aI7
asI7
(lp15
I0
aI3
aI9
asI8
(lp16
I6
aI7
aI8
asI9
(lp17
I0
aI4
aI6
assS'attribute_num'
p18
I10
sS'oa_rate'
p19
F0.29999999999999999
sS'object_list'
p20
(lp21
S'o0'
p22
aS'o1'
p23
aS'o2'
p24
aS'o3'
p25
aS'o4'
p26
aS'o5'
p27
aS'o6'
p28
aS'o7'
p29
aS'o8'
p30
aS'o9'
p31
asS'attribute_list'
p32
(lp33
S'a0'
p34
aS'a1'
p35
aS'a2'
p36
aS'a3'
p37
aS'a4'
p38
aS'a5'
p39
aS'a6'
p40
aS'a7'
p41
aS'a8'
p42
aS'a9'
p43
asS'br_list'
p44
(lp45
(lp46
I0
aI0
aI1
aI1
aI0
aI0
aI0
aI1
aI0
aI0
aa(lp47
I0
aI0
aI1
aI1
aI0
aI0
aI1
aI0
aI0
aI0
aa(lp48
I1
aI1
aI0
aI1
aI0
aI0
aI0
aI0
aI0
aI0
aa(lp49
I0
aI0
aI1
aI1
aI0
aI0
aI0
aI1
aI0
aI0
aa(lp50
I0
aI0
aI0
aI0
aI0
aI1
aI0
aI0
aI0
aI1
aa(lp51
I0
aI0
aI0
aI1
aI0
aI1
aI0
aI0
aI1
aI0
aa(lp52
I0
aI0
aI0
aI1
aI1
aI0
aI0
aI1
aI0
aI0
aa(lp53
I1
aI0
aI0
aI1
aI0
aI0
aI0
aI0
aI0
aI1
aa(lp54
I0
aI0
aI0
aI0
aI0
aI0
aI1
aI1
aI1
aI0
aa(lp55
I1
aI0
aI0
aI0
aI1
aI0
aI1
aI0
aI0
aI0
aasS'object_num'
p56
I10
sb.