ccopy_reg
_reconstructor
p0
(cFormalContext
FormalContext
p1
c__builtin__
object
p2
Ntp3
Rp4
(dp5
S'oa_value'
p6
(lp7
(lp8
I0
aI2
aI4
aI10
aI12
aI18
aa(lp9
I2
aI4
aI6
aI9
aI11
aI16
aa(lp10
I0
aI1
aI2
aa(lp11
I0
aI2
aI3
aI10
aI17
aa(lp12
I3
aI4
aI5
aI13
aI15
aa(lp13
I5
aI9
aI11
aI13
aI17
aa(lp14
I1
aI6
aI13
aI16
aI17
aI18
aa(lp15
I11
aI12
aI13
aI14
aI16
aI19
aa(lp16
I1
aI8
aI10
aI13
aI14
aI19
aa(lp17
I3
aI4
aI7
aI10
aI12
aI16
aa(lp18
I1
aI7
aI8
aI10
aI16
aa(lp19
I0
aI5
aI9
aI10
aI12
aI18
aa(lp20
I0
aI7
aI14
aI16
aI17
aI19
aa(lp21
I4
aI6
aI10
aI12
aI16
aI19
aa(lp22
I1
aI4
aI7
aI13
aI16
aI17
aa(lp23
I2
aI3
aI6
aI14
aI17
aI19
aa(lp24
I0
aI5
aI9
aI11
aI19
aa(lp25
I3
aI10
aI11
aI13
aI19
aa(lp26
I1
aI6
aI8
aI10
aI19
aa(lp27
I0
aI1
aI2
aI3
aI4
aI9
aasS'attribute_num'
p28
I20
sS'oa_rate'
p29
F0.29999999999999999
sS'object_list'
p30
(lp31
S'o0'
p32
aS'o1'
p33
aS'o2'
p34
aS'o3'
p35
aS'o4'
p36
aS'o5'
p37
aS'o6'
p38
aS'o7'
p39
aS'o8'
p40
aS'o9'
p41
aS'o10'
p42
aS'o11'
p43
aS'o12'
p44
aS'o13'
p45
aS'o14'
p46
aS'o15'
p47
aS'o16'
p48
aS'o17'
p49
aS'o18'
p50
aS'o19'
p51
asS'attribute_list'
p52
(lp53
S'a0'
p54
aS'a1'
p55
aS'a2'
p56
aS'a3'
p57
aS'a4'
p58
aS'a5'
p59
aS'a6'
p60
aS'a7'
p61
aS'a8'
p62
aS'a9'
p63
aS'a10'
p64
aS'a11'
p65
aS'a12'
p66
aS'a13'
p67
aS'a14'
p68
aS'a15'
p69
aS'a16'
p70
aS'a17'
p71
aS'a18'
p72
aS'a19'
p73
asS'br_list'
p74
(lp75
(lp76
I1
aI0
aI1
aI0
aI1
aI0
aI0
aI0
aI0
aI0
aI1
aI0
aI1
aI0
aI0
aI0
aI0
aI0
aI1
aI0
aa(lp77
I0
aI0
aI1
aI0
aI1
aI0
aI1
aI0
aI0
aI1
aI0
aI1
aI0
aI0
aI0
aI0
aI1
aI0
aI0
aI0
aa(lp78
I1
aI1
aI1
aI0
aI0
aI0
aI0
aI0
aI0
aI0
aI0
aI0
aI0
aI0
aI0
aI0
aI0
aI0
aI0
aI0
aa(lp79
I1
aI0
aI1
aI1
aI0
aI0
aI0
aI0
aI0
aI0
aI1
aI0
aI0
aI0
aI0
aI0
aI0
aI1
aI0
aI0
aa(lp80
I0
aI0
aI0
aI1
aI1
aI1
aI0
aI0
aI0
aI0
aI0
aI0
aI0
aI1
aI0
aI1
aI0
aI0
aI0
aI0
aa(lp81
I0
aI0
aI0
aI0
aI0
aI1
aI0
aI0
aI0
aI1
aI0
aI1
aI0
aI1
aI0
aI0
aI0
aI1
aI0
aI0
aa(lp82
I0
aI1
aI0
aI0
aI0
aI0
aI1
aI0
aI0
aI0
aI0
aI0
aI0
aI1
aI0
aI0
aI1
aI1
aI1
aI0
aa(lp83
I0
aI0
aI0
aI0
aI0
aI0
aI0
aI0
aI0
aI0
aI0
aI1
aI1
aI1
aI1
aI0
aI1
aI0
aI0
aI1
aa(lp84
I0
aI1
aI0
aI0
aI0
aI0
aI0
aI0
aI1
aI0
aI1
aI0
aI0
aI1
aI1
aI0
aI0
aI0
aI0
aI1
aa(lp85
I0
aI0
aI0
aI1
aI1
aI0
aI0
aI1
aI0
aI0
aI1
aI0
aI1
aI0
aI0
aI0
aI1
aI0
aI0
aI0
aa(lp86
I0
aI1
aI0
aI0
aI0
aI0
aI0
aI1
aI1
aI0
aI1
aI0
aI0
aI0
aI0
aI0
aI1
aI0
aI0
aI0
aa(lp87
I1
aI0
aI0
aI0
aI0
aI1
aI0
aI0
aI0
aI1
aI1
aI0
aI1
aI0
aI0
aI0
aI0
aI0
aI1
aI0
aa(lp88
I1
aI0
aI0
aI0
aI0
aI0
aI0
aI1
aI0
aI0
aI0
aI0
aI0
aI0
aI1
aI0
aI1
aI1
aI0
aI1
aa(lp89
I0
aI0
aI0
aI0
aI1
aI0
aI1
aI0
aI0
aI0
aI1
aI0
aI1
aI0
aI0
aI0
aI1
aI0
aI0
aI1
aa(lp90
I0
aI1
aI0
aI0
aI1
aI0
aI0
aI1
aI0
aI0
aI0
aI0
aI0
aI1
aI0
aI0
aI1
aI1
aI0
aI0
aa(lp91
I0
aI0
aI1
aI1
aI0
aI0
aI1
aI0
aI0
aI0
aI0
aI0
aI0
aI0
aI1
aI0
aI0
aI1
aI0
aI1
aa(lp92
I1
aI0
aI0
aI0
aI0
aI1
aI0
aI0
aI0
aI1
aI0
aI1
aI0
aI0
aI0
aI0
aI0
aI0
aI0
aI1
aa(lp93
I0
aI0
aI0
aI1
aI0
aI0
aI0
aI0
aI0
aI0
aI1
aI1
aI0
aI1
aI0
aI0
aI0
aI0
aI0
aI1
aa(lp94
I0
aI1
aI0
aI0
aI0
aI0
aI1
aI0
aI1
aI0
aI1
aI0
aI0
aI0
aI0
aI0
aI0
aI0
aI0
aI1
aa(lp95
I1
aI1
aI1
aI1
aI1
aI0
aI0
aI0
aI0
aI1
aI0
aI0
aI0
aI0
aI0
aI0
aI0
aI0
aI0
aI0
aasS'object_num'
p96
I20
sS'ao_value'
p97
(lp98
(lp99
I0
aI2
aI3
aI11
aI12
aI16
aI19
aa(lp100
I2
aI6
aI8
aI10
aI14
aI18
aI19
aa(lp101
I0
aI1
aI2
aI3
aI15
aI19
aa(lp102
I3
aI4
aI9
aI15
aI17
aI19
aa(lp103
I0
aI1
aI4
aI9
aI13
aI14
aI19
aa(lp104
I4
aI5
aI11
aI16
aa(lp105
I1
aI6
aI13
aI15
aI18
aa(lp106
I9
aI10
aI12
aI14
aa(lp107
I8
aI10
aI18
aa(lp108
I1
aI5
aI11
aI16
aI19
aa(lp109
I0
aI3
aI8
aI9
aI10
aI11
aI13
aI17
aI18
aa(lp110
I1
aI5
aI7
aI16
aI17
aa(lp111
I0
aI7
aI9
aI11
aI13
aa(lp112
I4
aI5
aI6
aI7
aI8
aI14
aI17
aa(lp113
I7
aI8
aI12
aI15
aa(lp114
I4
aa(lp115
I1
aI6
aI7
aI9
aI10
aI12
aI13
aI14
aa(lp116
I3
aI5
aI6
aI12
aI14
aI15
aa(lp117
I0
aI6
aI11
aa(lp118
I7
aI8
aI12
aI13
aI15
aI16
aI17
aI18
aasb.