(lp1
I0
aI1
aI1
aI2
aI1
aI1
aI3
aI4
aI1
aI1
aI5
aI6
aI7
aI8
aI1
aI5
aI9
aI1
aI10
aI0
aI11
aI10
aI10
aI12
aI13
aI1
aI1
aI14
aI15
aI1
aI5
aI16
aI17
aI18
aI5
aI0
aI19
aI1
aI1
aI20
aI15
aI21
aI22
aI23
aI24
aI25
aI1
aI1
aI26
aI27
aI28
aI0
aI29
aI30
aI28
aI31
aI32
aI33
aI34
aI0
aI35
aI1
aI30
aI36
aI37
aI38
aI39
aI40
aI12
aI1
aI1
aI5
aI32
aI41
aI42
aI43
aI44
aI1
aI12
aI1
aI45
aI46
aI1
aI47
aI48
aI49
aI50
aI0
aI12
aI51
aI52
aI53
aI54
aI52
aI1
aI15
aI55
aI56
aI1
aI57
aI28
aI5
aI0
aI58
aI1
aI59
aI60
aI61
aI62
aI1
aI56
aI1
aI1
aI5
aI10
aI63
aI0
aI64
aI65
aI0
aI66
aI22
aI1
aI1
aI0
aI67
aI0
aI68
aI69
aI1
aI70
aI71
aI72
aI12
aI56
aI1
aI45
aI73
aI45
aI56
aI1
aI1
aI1
aI0
aI74
aI45
aI1
aI75
aI76
aI1
aI77
aI1
aI5
aI78
aI79
aI57
aI10
aI80
aI27
aI39
aI0
aI5
aI1
aI81
aI10
aI5
aI82
aI1
aI1
aI83
aI84
aI32
aI5
aI0
aI5
aI85
aI0
aI81
aI5
aI10
aI1
aI86
aI23
aI1
aI87
aI88
aI5
aI1
aI1
aI89
aI1
aI30
aI1
aI1
aI57
aI90
aI1
aI91
aI0
aI0
aI92
aI32
aI93
aI0
aI94
aI0
aI95
aI96
aI53
aI97
aI10
aI1
aI98
aI30
aI89
aI1
aI1
aI45
aI39
aI1
aI99
aI30
aI28
aI89
aI30
aI19
aI0
aI0
aI0
aI10
aI5
aI0
aI100
aI101
aI10
aI102
aI103
aI53
aI5
aI0
aI28
aI104
aI105
aI106
aI12
aI107
aI108
aI39
aI109
aI47
aI53
aI0
aI53
aI0
aI30
aI104
aI1
aI110
aI1
aI0
aI1
aI1
aI111
aI56
aI1
aI112
aI113
aI32
aI1
aI1
aI0
aI1
aI1
aI15
aI16
aI0
aI12
aI114
aI28
aI0
aI57
aI1
aI14
aI1
aI115
aI116
aI19
aI1
aI117
aI45
aI118
aI12
aI1
aI119
aI120
aI1
aI1
aI5
aI32
aI121
aI0
aI102
aI10
aI122
aI52
aI1
aI16
aI123
aI10
aI124
aI30
aI125
aI1
aI126
aI127
aI1
aI128
aI1
aI1
aI0
aI39
aI1
aI1
aI129
aI1
aI52
aI45
aI130
aI1
aI10
aI1
aI10
aI1
aI5
aI131
aI132
aI5
aI32
aI89
aI133
aI0
aI1
aI60
aI0
aI56
aI12
aI1
aI5
aI134
aI10
aI135
aI1
aI0
aI136
aI137
aI1
aI1
aI0
aI1
aI1
aI0
aI138
aI15
aI12
aI139
aI29
aI140
aI57
aI5
aI30
aI141
aI56
aI142
aI12
aI10
aI13
aI28
aI1
aI143
aI52
aI144
aI145
aI146
aI147
aI0
aI91
aI1
aI148
aI149
aI1
aI150
aI0
aI151
aI152
aI153
aI32
aI1
aI57
aI154
aI0
aI1
aI68
aI5
aI0
aI0
aI0
aI155
aI1
aI156
aI0
aI157
aI16
aI158
aI32
aI53
aI19
aI0
aI30
aI0
aI159
aI81
aI1
aI52
aI1
aI128
aI160
aI10
aI0
aI1
aI10
aI161
aI1
aI153
aI10
aI27
aI0
aI47
aI5
aI56
aI0
aI1
aI158
aI1
aI1
aI162
aI163
aI164
aI165
aI5
aI166
aI167
aI120
aI56
aI168
aI169
aI170
aI12
aI171
aI1
aI27
aI0
aI172
aI10
aI32
aI5
aI1
aI93
aI30
aI173
aI1
aI174
aI175
aI1
aI1
aI56
aI55
aI0
aI1
aI5
aI30
aI98
aI1
aI135
aI176
aI30
aI45
aI1
aI57
aI1
aI0
aI177
aI1
aI56
aI30
aI53
aI10
aI32
aI5
aI178
aI53
aI179
aI1
aI1
aI45
aI1
aI180
aI0
aI15
aI5
aI124
aI181
aI1
aI10
aI5
aI12
aI182
aI19
aI5
aI39
aI183
aI184
aI53
aI1
aI0
aI10
aI126
aI0
aI185
aI0
aI19
aI186
aI146
aI187
aI1
aI1
aI188
aI0
aI189
aI190
aI191
aI19
aI1
aI0
aI1
aI1
aI52
aI56
aI192
aI135
aI45
aI193
aI12
aI1
aI12
aI194
aI1
aI195
aI196
aI45
aI47
aI197
aI146
aI57
aI198
aI199
aI0
aI1
aI45
aI200
aI5
aI201
aI202
aI203
aI204
aI117
aI0
aI5
aI86
aI23
aI1
aI146
aI0
aI1
aI28
aI1
aI205
aI0
aI206
aI135
aI1
aI0
aI52
aI1
aI53
aI1
aI1
aI30
aI1
aI56
aI12
aI207
aI208
aI209
aI45
aI53
aI210
aI112
aI19
aI10
aI0
aI106
aI211
aI30
aI1
aI182
aI212
aI213
aI1
aI126
aI1
aI214
aI215
aI81
aI28
aI5
aI12
aI10
aI216
aI30
aI1
aI1
aI217
aI1
aI28
aI1
aI15
aI53
aI218
aI1
aI45
aI53
aI1
aI0
aI0
aI1
aI0
aI1
aI1
aI1
aI51
aI1
aI1
aI12
aI1
aI55
aI219
aI5
aI220
aI221
aI89
aI5
aI57
aI56
aI57
aI47
aI0
aI69
aI222
aI53
aI92
aI1
aI120
aI12
aI223
aI5
aI1
aI0
aI53
aI1
aI135
aI93
aI224
aI0
aI225
aI1
aI81
aI45
aI1
aI1
aI56
aI148
aI12
aI0
aI1
aI15
aI226
aI0
aI227
aI228
aI53
aI30
aI12
aI45
aI5
aI0
aI229
aI5
aI230
aI1
aI5
aI56
aI5
aI0
aI5
aI92
aI231
aI53
aI5
aI0
aI1
aI1
aI1
aI232
aI1
aI146
aI233
aI10
aI234
aI235
aI236
aI237
aI238
aI12
aI229
aI0
aI1
aI1
aI178
aI107
aI102
aI239
aI240
aI146
aI104
aI1
aI89
aI5
aI23
aI1
aI47
aI1
aI241
aI242
aI30
aI1
aI12
aI1
aI1
aI0
aI5
aI5
aI243
aI244
aI10
aI245
aI182
aI246
aI0
aI247
aI30
aI248
aI249
aI1
aI1
aI1
aI208
aI250
aI1
aI251
aI0
aI1
aI5
aI252
aI81
aI117
aI1
aI253
aI91
aI5
aI1
aI1
aI45
aI139
aI254
aI154
aI1
aI255
aI10
aI256
aI257
aI1
aI208
aI45
aI13
aI258
aI227
aI10
aI259
aI260
aI5
aI1
aI1
aI1
aI47
aI53
aI261
aI5
aI0
aI27
aI0
aI1
aI5
aI1
aI262
aI263
aI264
aI231
aI1
aI1
aI107
aI265
aI139
aI1
aI12
aI0
aI47
aI266
aI0
aI1
aI267
aI10
aI1
aI268
aI269
aI5
aI10
aI0
aI270
aI27
aI1
aI271
aI112
aI92
aI272
aI1
aI273
aI80
aI55
aI274
aI12
aI275
aI80
aI135
aI0
aI5
aI1
aI10
aI1
aI1
aI13
aI30
aI57
aI276
aI1
aI277
aI1
aI0
aI109
aI1
aI278
aI5
aI279
aI5
aI5
aI51
aI1
aI1
aI45
aI5
aI10
aI1
aI89
aI280
aI92
aI281
aI10
aI118
aI1
aI282
aI10
aI1
aI10
aI227
aI5
aI12
aI5
aI283
aI47
aI39
aI1
aI1
aI5
aI15
aI284
aI285
aI286
aI0
aI5
aI1
aI227
aI287
aI288
aI289
aI290
aI1
aI112
aI146
aI93
aI39
aI22
aI227
aI291
aI52
aI1
aI10
aI10
aI0
aI100
aI0
aI1
aI53
aI5
aI292
aI1
aI293
aI205
aI294
aI45
aI39
aI56
aI15
aI0
aI295
aI0
aI296
aI297
aI45
aI0
aI117
aI1
aI1
aI92
aI298
aI299
aI10
aI39
aI0
aI128
aI56
aI300
aI27
aI1
aI294
aI0
aI45
aI148
aI182
aI301
aI302
aI45
aI1
aI10
aI303
aI1
aI5
aI1
aI10
aI110
aI304
aI10
aI305
aI117
aI306
aI1
aI1
aI8
aI104
aI0
aI307
aI308
aI1
aI1
aI0
aI228
aI309
aI310
aI12
aI30
aI1
aI60
aI39
aI182
aI1
aI311
aI1
aI1
aI8
aI8
aI1
aI0
aI39
aI312
aI1
aI313
aI1
aI1
aI1
aI0
aI1
aI53
aI56
aI1
aI1
aI314
aI0
aI315
aI1
aI158
aI316
aI0
aI1
aI16
aI1
aI1
aI56
aI10
aI253
aI47
aI45
aI34
aI0
aI317
aI0
aI1
aI30
aI318
aI0
aI319
aI30
aI1
aI47
aI107
aI320
aI321
aI32
aI322
aI0
aI323
aI182
aI170
aI5
aI212
aI5
aI45
aI28
aI324
aI5
aI56
aI30
aI47
aI12
aI19
aI5
aI5
aI5
aI325
aI1
aI326
aI327
aI328
aI5
aI1
aI32
aI56
aI0
aI0
aI1
aI329
aI1
aI10
aI330
aI331
aI5
aI208
aI5
aI253
aI68
aI1
aI332
aI16
aI333
aI265
aI5
aI334
aI298
aI1
aI1
aI106
aI28
aI335
aI336
aI337
aI146
aI53
aI338
aI339
aI1
aI1
aI12
aI12
aI340
aI341
aI135
aI0
aI0
aI0
aI1
aI342
aI120
aI343
aI1
aI1
aI344
aI12
aI345
aI56
aI12
aI1
aI1
aI1
aI346
aI27
aI12
aI0
aI5
aI10
aI347
aI32
aI348
aI22
aI337
aI1
aI0
aI349
aI12
aI350
aI1
aI32
aI22
aI0
aI135
aI46
aI351
aI1
aI30
aI1
aI1
aI1
aI10
aI5
aI1
aI5
aI352
aI30
aI1
aI353
aI267
aI146
aI1
aI64
aI5
aI11
aI1
aI1
aI0
aI81
aI317
aI139
aI354
aI55
aI5
aI355
aI0
aI32
aI356
aI357
aI10
aI0
aI0
aI10
aI30
aI10
aI146
aI10
aI358
aI359
aI360
aI56
aI30
aI361
aI5
aI362
aI0
aI1
aI5
aI16
aI45
aI45
aI5
aI23
aI81
aI1
aI0
aI47
aI363
aI5
aI1
aI364
aI365
aI53
aI1
aI0
aI366
aI367
aI0
aI10
aI267
aI5
aI368
aI369
aI370
aI0
aI1
aI371
aI1
aI165
aI30
aI53
aI0
aI45
aI372
aI1
aI373
aI45
aI374
aI10
aI10
aI1
aI1
aI1
aI104
aI0
aI0
aI5
aI10
aI0
aI1
aI1
aI93
aI1
aI56
aI1
aI1
aI5
aI55
aI10
aI1
aI300
aI1
aI375
aI0
aI1
aI0
aI376
aI35
aI0
aI1
aI107
aI53
aI377
aI378
aI379
aI12
aI29
aI1
aI312
aI1
aI380
aI1
aI1
aI1
aI1
aI146
aI53
aI381
aI139
aI1
aI1
aI35
aI10
aI382
aI10
aI10
aI1
aI0
aI22
aI135
aI383
aI0
aI0
aI384
aI0
aI5
aI52
aI253
aI1
aI10
aI374
aI1
aI385
aI386
aI1
aI1
aI387
aI10
aI388
aI182
aI389
aI0
aI390
aI391
aI392
aI1
aI0
aI393
aI1
aI1
aI394
aI1
aI173
aI1
aI22
aI106
aI5
aI1
aI395
aI396
aI397
aI398
aI1
aI1
aI1
aI399
aI120
aI56
aI5
aI1
aI5
aI400
aI1
aI5
aI1
aI5
aI1
aI39
aI401
aI233
aI28
aI402
aI253
aI10
aI1
aI403
aI404
aI12
aI30
aI53
aI5
aI1
aI47
aI1
aI92
aI32
aI1
aI1
aI53
aI290
aI45
aI0
aI1
aI405
aI68
aI5
aI53
aI5
aI0
aI0
aI0
aI5
aI1
aI406
aI407
aI408
aI409
aI5
aI0
aI1
aI15
aI12
aI410
aI10
aI1
aI1
aI411
aI0
aI412
aI10
aI413
aI1
aI1
aI32
aI1
aI8
aI5
aI14
aI0
aI45
aI19
aI1
aI120
aI45
aI1
aI300
aI253
aI47
aI15
aI414
aI415
aI416
aI1
aI314
aI45
aI0
aI417
aI60
aI13
aI418
aI0
aI419
aI420
aI1
aI421
aI422
aI1
aI15
aI1
aI423
aI1
aI424
aI1
aI28
aI10
aI425
aI1
aI15
aI0
aI426
aI427
aI30
aI0
aI428
aI429
aI0
aI430
aI1
aI1
aI431
aI117
aI294
aI45
aI35
aI432
aI22
aI1
aI81
aI28
aI30
aI1
aI5
aI433
aI434
aI1
aI11
aI435
aI436
aI437
aI5
aI438
aI1
aI92
aI13
aI0
aI56
aI439
aI91
aI89
aI32
aI0
aI1
aI30
aI12
aI1
aI10
aI208
aI0
aI1
aI29
aI12
aI1
aI106
aI440
aI53
aI296
aI45
aI53
aI1
aI441
aI442
aI80
aI1
aI45
aI443
aI0
aI52
aI444
aI445
aI53
aI0
aI446
aI447
aI1
aI53
aI448
aI53
aI399
aI5
aI449
aI107
aI28
aI450
aI5
aI0
aI248
aI1
aI10
aI451
aI10
aI0
aI1
aI47
aI5
aI1
aI120
aI1
aI139
aI45
aI81
aI1
aI32
aI452
aI5
aI1
aI1
aI453
aI454
aI455
aI1
aI456
aI1
aI457
aI10
aI22
aI0
aI10
aI458
aI22
aI53
aI317
aI459
aI5
aI5
aI460
aI10
aI0
aI27
aI461
aI1
aI462
aI463
aI1
aI464
aI0
aI465
aI45
aI1
aI466
aI467
aI300
aI468
aI56
aI1
aI469
aI470
aI102
aI45
aI53
aI5
aI471
aI472
aI473
aI106
aI5
aI1
aI0
aI462
aI474
aI60
aI475
aI1
aI10
aI138
aI0
aI68
aI1
aI476
aI1
aI5
aI1
aI477
aI135
aI5
aI27
aI81
aI236
aI478
aI165
aI479
aI139
aI480
aI481
aI482
aI5
aI1
aI117
aI483
aI250
aI0
aI1
aI12
aI12
aI484
aI485
aI486
aI13
aI45
aI487
aI1
aI436
aI10
aI120
aI45
aI1
aI1
aI92
aI158
aI12
aI52
aI56
aI81
aI488
aI489
aI0
aI0
aI490
aI1
aI12
aI5
aI30
aI1
aI217
aI22
aI12
aI0
aI52
aI491
aI1
aI218
aI1
aI1
aI492
aI1
aI22
aI10
aI117
aI493
aI494
aI5
aI294
aI5
aI53
aI250
aI53
aI89
aI5
aI1
aI12
aI14
aI0
aI47
aI293
aI495
aI12
aI28
aI496
aI283
aI15
aI47
aI1
aI1
aI1
aI497
aI1
aI498
aI1
aI1
aI1
aI1
aI396
aI10
aI45
aI10
aI53
aI499
aI500
aI1
aI501
aI1
aI1
aI56
aI10
aI0
aI5
aI502
aI267
aI1
aI328
aI1
aI503
aI504
aI505
aI1
aI10
aI1
aI1
aI39
aI506
aI106
aI250
aI56
aI55
aI507
aI25
aI5
aI294
aI1
aI112
aI0
aI508
aI5
aI81
aI509
aI0
aI300
aI89
aI30
aI435
aI374
aI467
aI1
aI22
aI1
aI53
aI1
aI111
aI510
aI47
aI1
aI39
aI5
aI511
aI128
aI512
aI10
aI513
aI514
aI515
aI0
aI45
aI516
aI517
aI1
aI1
aI518
aI1
aI1
aI519
aI520
aI53
aI111
aI521
aI1
aI5
aI522
aI1
aI182
aI1
aI81
aI523
aI1
aI524
aI12
aI5
aI296
aI5
aI244
aI5
aI0
aI28
aI91
aI1
aI1
aI0
aI106
aI0
aI525
aI30
aI0
aI147
aI139
aI1
aI526
aI527
aI13
aI1
aI39
aI1
aI1
aI1
aI0
aI0
aI528
aI0
aI1
aI45
aI1
aI109
aI45
aI529
aI530
aI0
aI1
aI47
aI1
aI1
aI1
aI5
aI1
aI1
aI531
aI532
aI0
aI10
aI56
aI10
aI533
aI1
aI534
aI1
aI27
aI535
aI1
aI536
aI45
aI1
aI537
aI538
aI213
aI52
aI539
aI60
aI12
aI45
aI22
aI10
aI540
aI5
aI45
aI0
aI541
aI212
aI47
aI46
aI47
aI1
aI259
aI10
aI542
aI543
aI30
aI19
aI544
aI265
aI545
aI546
aI45
aI547
aI45
aI265
aI495
aI495
aI110
aI30
aI0
aI1
aI548
aI1
aI549
aI550
aI309
aI0
aI1
aI45
aI551
aI1
aI12
aI0
aI552
aI0
aI0
aI1
aI10
aI92
aI10
aI553
aI1
aI554
aI81
aI555
aI459
aI1
aI5
aI1
aI1
aI45
aI556
aI14
aI45
aI557
aI0
aI47
aI12
aI558
aI1
aI559
aI188
aI1
aI0
aI1
aI560
aI462
aI0
aI1
aI1
aI561
aI5
aI120
aI1
aI146
aI0
aI1
aI0
aI15
aI562
aI563
aI482
aI564
aI47
aI53
aI565
aI0
aI0
aI45
aI5
aI28
aI53
aI566
aI567
aI568
aI12
aI569
aI1
aI109
aI0
aI1
aI10
aI5
aI10
aI1
aI570
aI1
aI571
aI1
aI1
aI1
aI1
aI0
aI1
aI139
aI572
aI146
aI573
aI574
aI128
aI45
aI575
aI56
aI576
aI47
aI0
aI5
aI32
aI1
aI0
aI1
aI1
aI5
aI10
aI182
aI45
aI12
aI5
aI1
aI577
aI578
aI30
aI579
aI45
aI32
aI1
aI15
aI146
aI30
aI0
aI580
aI581
aI0
aI8
aI213
aI53
aI56
aI30
aI1
aI0
aI60
aI22
aI52
aI22
aI0
aI1
aI1
aI1
aI582
aI137
aI12
aI10
aI1
aI5
aI583
aI39
aI68
aI146
aI584
aI53
aI227
aI0
aI585
aI182
aI56
aI10
aI586
aI5
aI10
aI1
aI0
aI30
aI1
aI206
aI278
aI57
aI0
aI12
aI1
aI1
aI1
aI1
aI45
aI587
aI0
aI28
aI0
aI109
aI1
aI588
aI589
aI1
aI0
aI53
aI590
aI1
aI591
aI592
aI294
aI45
aI461
aI593
aI10
aI56
aI0
aI53
aI0
aI182
aI1
aI1
aI39
aI1
aI594
aI1
aI0
aI1
aI595
aI146
aI1
aI596
aI597
aI28
aI53
aI0
aI379
aI1
aI598
aI599
aI1
aI28
aI600
aI374
aI601
aI1
aI374
aI28
aI165
aI45
aI1
aI602
aI1
aI23
aI182
aI603
aI604
aI605
aI606
aI1
aI146
aI81
aI1
aI1
aI1
aI607
aI1
aI1
aI139
aI12
aI608
aI609
aI610
aI1
aI53
aI314
aI106
aI53
aI53
aI611
aI0
aI612
aI27
aI5
aI47
aI135
aI1
aI613
aI0
aI128
aI5
aI53
aI1
aI117
aI1
aI614
aI515
aI12
aI337
aI12
aI1
aI1
aI615
aI12
aI39
aI616
aI13
aI617
aI1
aI5
aI618
aI11
aI64
aI10
aI556
aI619
aI284
aI30
aI620
aI0
aI1
aI5
aI621
aI5
aI622
aI623
aI1
aI1
aI47
aI624
aI38
aI1
aI45
aI39
aI28
aI1
aI1
aI57
aI300
aI16
aI86
aI10
aI109
aI625
aI626
aI627
aI5
aI0
aI120
aI594
aI51
aI294
aI628
aI1
aI45
aI1
aI1
aI1
aI165
aI15
aI0
aI5
aI0
aI1
aI231
aI629
aI27
aI188
aI10
aI1
aI630
aI631
aI0
aI5
aI632
aI10
aI1
aI30
aI633
aI107
aI32
aI634
aI10
aI0
aI57
aI81
aI635
aI5
aI1
aI30
aI106
aI182
aI1
aI1
aI0
aI30
aI0
aI53
aI19
aI636
aI1
aI146
aI1
aI12
aI637
aI638
aI1
aI0
aI0
aI358
aI5
aI1
aI1
aI639
aI1
aI146
aI29
aI1
aI250
aI52
aI81
aI56
aI53
aI154
aI221
aI146
aI0
aI182
aI104
aI640
aI641
aI218
aI642
aI5
aI1
aI300
aI643
aI644
aI645
aI294
aI0
aI22
aI1
aI328
aI10
aI646
aI1
aI8
aI10
aI0
aI311
aI1
aI647
aI648
aI10
aI649
aI53
aI57
aI0
aI1
aI650
aI5
aI651
aI1
aI652
aI81
aI1
aI653
aI45
aI654
aI53
aI488
aI655
aI656
aI5
aI146
aI12
aI0
aI5
aI106
aI657
aI582
aI1
aI658
aI220
aI1
aI47
aI1
aI253
aI19
aI659
aI660
aI93
aI661
aI601
aI1
aI30
aI662
aI212
aI1
aI5
aI12
aI12
aI10
aI22
aI663
aI30
aI120
aI27
aI0
aI536
aI56
aI28
aI47
aI664
aI146
aI1
aI665
aI481
aI666
aI45
aI56
aI667
aI467
aI668
aI669
aI22
aI670
aI12
aI671
aI1
aI589
aI0
aI672
aI5
aI0
aI673
aI1
aI1
aI1
aI81
aI1
aI674
aI675
aI107
aI250
aI676
aI677
aI1
aI63
aI678
aI117
aI47
aI0
aI679
aI351
aI1
aI1
aI111
aI10
aI0
aI680
aI1
aI12
aI1
aI10
aI5
aI45
aI1
aI0
aI30
aI68
aI45
aI53
aI56
aI12
aI39
aI112
aI1
aI681
aI682
aI25
aI15
aI15
aI45
aI5
aI292
aI68
aI23
aI593
aI683
aI0
aI246
aI684
aI53
aI685
aI0
aI1
aI30
aI1
aI16
aI0
aI686
aI0
aI109
aI1
aI227
aI110
aI12
aI687
aI141
aI300
aI10
aI60
aI688
aI53
aI30
aI1
aI1
aI32
aI14
aI1
aI1
aI10
aI689
aI10
aI56
aI28
aI0
aI690
aI106
aI5
aI691
aI30
aI43
aI1
aI120
aI692
aI57
aI47
aI1
aI56
aI693
aI124
aI218
aI0
aI1
aI1
aI694
aI15
aI22
aI1
aI1
aI1
aI1
aI10
aI47
aI5
aI64
aI117
aI56
aI695
aI110
aI53
aI10
aI696
aI53
aI81
aI697
aI18
aI208
aI698
aI173
aI435
aI1
aI699
aI10
aI0
aI700
aI1
aI64
aI100
aI253
aI56
aI1
aI0
aI701
aI1
aI702
aI0
aI60
aI5
aI703
aI0
aI32
aI1
aI565
aI45
aI1
aI1
aI39
aI704
aI468
aI705
aI0
aI1
aI16
aI329
aI0
aI706
aI328
aI536
aI55
aI57
aI5
aI5
aI5
aI1
aI5
aI1
aI707
aI708
aI294
aI1
aI1
aI0
aI112
aI296
aI1
aI709
aI137
aI0
aI1
aI45
aI1
aI22
aI1
aI294
aI146
aI1
aI5
aI57
aI710
aI0
aI147
aI711
aI13
aI12
aI467
aI10
aI120
aI1
aI89
aI712
aI16
aI1
aI495
aI713
aI5
aI0
aI714
aI53
aI45
aI56
aI1
aI0
aI1
aI1
aI715
aI10
aI0
aI716
aI5
aI1
aI107
aI1
aI717
aI68
aI0
aI0
aI718
aI1
aI1
aI1
aI45
aI1
aI30
aI1
aI719
aI1
aI1
aI1
aI1
aI403
aI0
aI5
aI109
aI19
aI1
aI45
aI5
aI10
aI1
aI720
aI721
aI53
aI1
aI0
aI56
aI86
aI52
aI722
aI29
aI1
aI45
aI81
aI139
aI723
aI0
aI724
aI5
aI1
aI5
aI117
aI1
aI47
aI135
aI0
aI5
aI725
aI640
aI726
aI727
aI13
aI728
aI10
aI583
aI45
aI1
aI56
aI1
aI729
aI730
aI53
aI731
aI5
aI732
aI10
aI1
aI0
aI1
aI15
aI55
aI0
aI733
aI1
aI211
aI53
aI265
aI734
aI139
aI30
aI1
aI5
aI30
aI12
aI1
aI735
aI53
aI736
aI1
aI0
aI1
aI737
aI0
aI12
aI738
aI1
aI1
aI12
aI107
aI0
aI53
aI0
aI146
aI1
aI12
aI1
aI0
aI39
aI1
aI739
aI5
aI135
aI1
aI32
aI227
aI0
aI0
aI740
aI0
aI104
aI741
aI1
aI28
aI28
aI1
aI553
aI15
aI1
aI16
aI139
aI742
aI743
aI117
aI23
aI10
aI744
aI745
aI1
aI746
aI56
aI12
aI12
aI747
aI0
aI98
aI112
aI5
aI5
aI28
aI1
aI10
aI12
aI30
aI0
aI15
aI10
aI748
aI0
aI1
aI1
aI5
aI116
aI1
aI749
aI45
aI10
aI5
aI80
aI1
aI750
aI10
aI1
aI751
aI752
aI753
aI1
aI1
aI582
aI754
aI0
aI146
aI0
aI755
aI756
aI1
aI201
aI0
aI5
aI135
aI52
aI1
aI1
aI757
aI758
aI22
aI81
aI1
aI759
aI760
aI761
aI12
aI1
aI5
aI0
aI1
aI762
aI317
aI763
aI56
aI0
aI5
aI1
aI0
aI218
aI12
aI764
aI29
aI765
aI0
aI766
aI767
aI768
aI769
aI770
aI5
aI47
aI1
aI594
aI90
aI47
aI14
aI5
aI1
aI771
aI23
aI1
aI1
aI1
aI1
aI701
aI52
aI1
aI290
aI328
aI1
aI772
aI0
aI773
aI774
aI165
aI120
aI775
aI776
aI1
aI53
aI45
aI19
aI5
aI777
aI10
aI778
aI10
aI55
aI1
aI779
aI1
aI32
aI1
aI117
aI53
aI1
aI1
aI30
aI12
aI64
aI19
aI0
aI1
aI56
aI56
aI0
aI22
aI53
aI477
aI45
aI1
aI780
aI52
aI1
aI253
aI12
aI781
aI1
aI1
aI10
aI5
aI1
aI374
aI782
aI10
aI18
aI81
aI10
aI1
aI1
aI783
aI784
aI1
aI146
aI5
aI1
aI55
aI1
aI182
aI106
aI10
aI5
aI28
aI30
aI785
aI0
aI0
aI0
aI786
aI45
aI10
aI787
aI788
aI0
aI261
aI789
aI1
aI1
aI790
aI1
aI791
aI14
aI792
aI0
aI38
aI117
aI5
aI793
aI703
aI12
aI39
aI794
aI1
aI5
aI10
aI12
aI795
aI152
aI107
aI329
aI80
aI796
aI101
aI92
aI1
aI1
aI797
aI5
aI798
aI1
aI53
aI56
aI81
aI68
aI799
aI584
aI5
aI12
aI800
aI56
aI298
aI801
aI110
aI802
aI1
aI1
aI10
aI0
aI11
aI100
aI5
aI250
aI91
aI39
aI803
aI30
aI804
aI798
aI1
aI0
aI1
aI805
aI22
aI231
aI77
aI154
aI1
aI328
aI10
aI47
aI806
aI807
aI22
aI808
aI0
aI809
aI5
aI1
aI1
aI1
aI1
aI27
aI5
aI810
aI182
aI1
aI0
aI28
aI1
aI811
aI1
aI0
aI10
aI5
aI732
aI1
aI45
aI309
aI47
aI5
aI812
aI813
aI295
aI814
aI47
aI45
aI10
aI173
aI815
aI64
aI1
aI1
aI816
aI1
aI5
aI1
aI56
aI109
aI817
aI117
aI0
aI1
aI128
aI1
aI1
aI1
aI818
aI819
aI5
aI328
aI15
aI175
aI0
aI0
aI1
aI27
aI12
aI5
aI55
aI820
aI821
aI206
aI1
aI822
aI823
aI0
aI10
aI1
aI824
aI825
aI182
aI45
aI1
aI5
aI430
aI22
aI1
aI337
aI57
aI0
aI1
aI1
aI261
aI496
aI1
aI28
aI826
aI16
aI1
aI1
aI12
aI827
aI1
aI1
aI828
aI829
aI106
aI0
aI1
aI1
aI1
aI1
aI1
aI830
aI831
aI10
aI0
aI10
aI1
aI1
aI1
aI832
aI833
aI834
aI0
aI5
aI56
aI835
aI836
aI436
aI837
aI330
aI1
aI91
aI838
aI839
aI323
aI22
aI1
aI328
aI840
aI12
aI32
aI5
aI1
aI106
aI841
aI0
aI1
aI1
aI842
aI843
aI1
aI844
aI845
aI0
aI39
aI0
aI52
aI45
aI45
aI1
aI208
aI1
aI10
aI846
aI5
aI52
aI10
aI847
aI459
aI593
aI10
aI30
aI848
aI10
aI13
aI30
aI337
aI120
aI300
aI849
aI850
aI8
aI851
aI852
aI128
aI0
aI853
aI575
aI1
aI5
aI854
aI208
aI363
aI1
aI1
aI0
aI23
aI785
aI265
aI855
aI30
aI47
aI1
aI10
aI1
aI856
aI1
aI1
aI10
aI1
aI583
aI857
aI858
aI1
aI859
aI10
aI1
aI117
aI45
aI53
aI860
aI182
aI406
aI1
aI1
aI861
aI862
aI89
aI0
aI863
aI453
aI182
aI5
aI30
aI864
aI1
aI1
aI801
aI81
aI1
aI47
aI290
aI5
aI865
aI1
aI1
aI866
aI867
aI146
aI1
aI1
aI0
aI1
aI1
aI868
aI0
aI1
aI718
aI869
aI53
aI5
aI1
aI1
aI1
aI870
aI52
aI1
aI5
aI1
aI12
aI298
aI0
aI5
aI1
aI871
aI227
aI1
aI57
aI53
aI45
aI872
aI790
aI30
aI205
aI1
aI12
aI873
aI1
aI253
aI15
aI5
aI874
aI5
aI5
aI45
aI47
aI28
aI57
aI0
aI10
aI1
aI12
aI12
aI875
aI253
aI876
aI30
aI877
aI32
aI68
aI45
aI10
aI878
aI879
aI8
aI0
aI56
aI8
aI880
aI881
aI383
aI882
aI883
aI57
aI884
aI173
aI885
aI253
aI461
aI11
aI120
aI10
aI358
aI5
aI52
aI460
aI886
aI32
aI0
aI1
aI1
aI1
aI887
aI1
aI1
aI888
aI60
aI0
aI743
aI889
aI890
aI5
aI0
aI891
aI22
aI27
aI1
aI1
aI137
aI45
aI1
aI91
aI1
aI892
aI893
aI1
aI0
aI37
aI894
aI53
aI895
aI23
aI1
aI896
aI897
aI250
aI1
aI89
aI117
aI57
aI22
aI351
aI100
aI12
aI5
aI1
aI47
aI28
aI1
aI5
aI30
aI32
aI89
aI182
aI898
aI294
aI899
aI1
aI1
aI126
aI900
aI5
aI1
aI19
aI146
aI1
aI901
aI5
aI294
aI902
aI0
aI56
aI39
aI100
aI1
aI39
aI903
aI295
aI337
aI0
aI1
aI904
aI411
aI1
aI905
aI906
aI907
aI110
aI1
aI1
aI593
aI22
aI231
aI908
aI909
aI1
aI182
aI1
aI1
aI47
aI910
aI0
aI413
aI1
aI488
aI911
aI912
aI135
aI913
aI1
aI914
aI64
aI15
aI53
aI30
aI1
aI1
aI81
aI0
aI0
aI1
aI911
aI0
aI915
aI916
aI917
aI1
aI1
aI30
aI918
aI250
aI10
aI1
aI12
aI45
aI1
aI30
aI919
aI1
aI0
aI47
aI479
aI1
aI1
aI1
aI920
aI1
aI5
aI222
aI22
aI19
aI0
aI921
aI0
aI922
aI923
aI924
aI244
aI1
aI0
aI924
aI925
aI267
aI10
aI926
aI358
aI56
aI80
aI47
aI927
aI551
aI459
aI928
aI378
aI39
aI929
aI52
aI0
aI930
aI931
aI1
aI38
aI0
aI55
aI932
aI12
aI1
aI1
aI12
aI933
aI1
aI30
aI120
aI60
aI294
aI52
aI1
aI2
aI1
aI934
aI0
aI1
aI0
aI935
aI23
aI10
aI148
aI45
aI53
aI0
aI30
aI936
aI146
aI432
aI926
aI53
aI5
aI5
aI0
aI937
aI5
aI30
aI91
aI1
aI53
aI57
aI1
aI1
aI938
aI1
aI939
aI940
aI45
aI800
aI0
aI941
aI1
aI592
aI942
aI1
aI165
aI1
aI47
aI0
aI943
aI0
aI1
aI0
aI12
aI32
aI1
aI30
aI22
aI139
aI1
aI32
aI0
aI0
aI10
aI1
aI1
aI45
aI944
aI945
aI1
aI946
aI10
aI0
aI5
aI571
aI53
aI1
aI1
aI28
aI236
aI1
aI539
aI30
aI89
aI75
aI15
aI23
aI947
aI10
aI117
aI948
aI949
aI13
aI32
aI950
aI11
aI110
aI5
aI951
aI45
aI1
aI45
aI952
aI953
aI5
aI1
aI253
aI954
aI703
aI955
aI23
aI53
aI260
aI1
aI951
aI0
aI0
aI0
aI1
aI1
aI956
aI137
aI53
aI785
aI1
aI0
aI128
aI1
aI957
aI45
aI106
aI958
aI5
aI52
aI194
aI0
aI5
aI959
aI960
aI0
aI52
aI5
aI1
aI0
aI0
aI1
aI686
aI0
aI5
aI961
aI962
aI53
aI146
aI1
aI1
aI1
aI23
aI294
aI1
aI582
aI1
aI343
aI640
aI47
aI963
aI5
aI81
aI8
aI1
aI39
aI1
aI52
aI117
aI964
aI0
aI10
aI1
aI1
aI300
aI767
aI10
aI1
aI1
aI965
aI966
aI182
aI1
aI5
aI374
aI967
aI12
aI968
aI969
aI1
aI12
aI1
aI56
aI970
aI146
aI971
aI609
aI972
aI146
aI10
aI973
aI56
aI1
aI139
aI0
aI64
aI53
aI974
aI975
aI64
aI146
aI1
aI976
aI19
aI1
aI1
aI1
aI45
aI30
aI45
aI51
aI0
aI53
aI47
aI104
aI977
aI228
aI1
aI978
aI5
aI0
aI1
aI53
aI462
aI45
aI128
aI979
aI228
aI212
aI64
aI980
aI0
aI5
aI5
aI45
aI56
aI81
aI1
aI57
aI981
aI358
aI138
aI982
aI1
aI0
aI983
aI53
aI0
aI0
aI104
aI52
aI1
aI1
aI253
aI45
aI0
aI984
aI39
aI1
aI985
aI986
aI440
aI1
aI0
aI28
aI5
aI5
aI5
aI12
aI487
aI1
aI5
aI1
aI987
aI1
aI12
aI1
aI1
aI1
aI5
aI5
aI135
aI988
aI12
aI989
aI22
aI990
aI265
aI98
aI5
aI53
aI28
aI5
aI0
aI228
aI1
aI991
aI992
aI703
aI0
aI1
aI993
aI0
aI53
aI45
aI994
aI1
aI995
aI5
aI1
aI996
aI1
aI0
aI52
aI0
aI68
aI8
aI45
aI5
aI5
aI0
aI1
aI1
aI13
aI39
aI0
aI1
aI1
aI1
aI0
aI5
aI1
aI997
aI55
aI45
aI998
aI999
aI1000
aI790
aI1001
aI1
aI466
aI1
aI8
aI937
aI1002
aI0
aI1
aI1003
aI1
aI1004
aI1
aI56
aI1
aI5
aI10
aI309
aI30
aI10
aI1
aI548
aI1
aI1
aI330
aI0
aI47
aI488
aI1005
aI0
aI1006
aI1
aI81
aI5
aI1
aI1007
aI0
aI300
aI1008
aI1009
aI90
aI1
aI0
aI15
aI56
aI47
aI1010
aI182
aI1
aI1
aI799
aI1011
aI28
aI45
aI732
aI1
aI1012
aI1013
aI1014
aI53
aI1
aI1015
aI28
aI53
aI45
aI110
aI462
aI170
aI49
aI1
aI1016
aI120
aI1017
aI57
aI1018
aI47
aI1019
aI0
aI0
aI1020
aI1021
aI10
aI462
aI1022
aI10
aI1
aI56
aI53
aI1023
aI47
aI1024
aI328
aI10
aI53
aI12
aI1025
aI16
aI260
aI45
aI1026
aI1
aI584
aI1027
aI1
aI1
aI739
aI1028
aI1
aI1029
aI120
aI1030
aI1
aI1
aI0
aI1031
aI1032
aI0
aI15
aI1033
aI12
aI1034
aI0
aI0
aI972
aI901
aI1
aI32
aI68
aI81
aI45
aI45
aI1
aI1
aI1
aI1
aI1035
aI60
aI1036
aI198
aI10
aI662
aI53
aI1037
aI47
aI1
aI5
aI68
aI5
aI45
aI13
aI212
aI0
aI45
aI1
aI1038
aI1039
aI15
aI0
aI1
aI0
aI12
aI10
aI47
aI135
aI139
aI12
aI1
aI1
aI10
aI1040
aI1041
aI1042
aI139
aI120
aI1043
aI10
aI853
aI656
aI1
aI47
aI47
aI5
aI12
aI45
aI1044
aI336
aI1045
aI10
aI10
aI98
aI1
aI154
aI45
aI247
aI12
aI60
aI5
aI10
aI120
aI1
aI1046
aI60
aI39
aI739
aI47
aI0
aI12
aI1
aI55
aI213
aI493
aI1047
aI0
aI28
aI5
aI1048
aI1049
aI343
aI45
aI548
aI47
aI12
aI146
aI575
aI18
aI1
aI81
aI1050
aI10
aI146
aI47
aI22
aI1051
aI32
aI10
aI1052
aI0
aI5
aI52
aI109
aI1053
aI10
aI291
aI1
aI139
aI5
aI45
aI1054
aI0
aI1
aI45
aI129
aI28
aI294
aI10
aI1055
aI47
aI1
aI1056
aI1
aI1
aI1057
aI10
aI1058
aI47
aI328
aI290
aI109
aI0
aI57
aI0
aI117
aI838
aI294
aI1059
aI835
aI230
aI1060
aI1
aI5
aI1061
aI12
aI479
aI56
aI2
aI1
aI1062
aI5
aI110
aI1063
aI103
aI81
aI10
aI0
aI5
aI1
aI52
aI30
aI132
aI428
aI1
aI1
aI1
aI22
aI1
aI1
aI1064
aI330
aI1065
aI1
aI1
aI5
aI53
aI1
aI1066
aI1
aI5
aI120
aI23
aI5
aI0
aI915
aI52
aI1067
aI212
aI1068
aI1
aI28
aI53
aI5
aI468
aI265
aI1
aI1
aI1069
aI15
aI139
aI12
aI81
aI1
aI25
aI1070
aI1
aI1
aI1
aI1
aI1
aI135
aI0
aI1071
aI1
aI80
aI1062
aI0
aI1072
aI1
aI1
aI0
aI647
aI1
aI15
aI358
aI53
aI0
aI29
aI1
aI1
aI158
aI1
aI1073
aI1
aI1
aI1
aI1074
aI10
aI5
aI1
aI257
aI1075
aI10
aI1076
aI92
aI10
aI1077
aI0
aI1
aI1
aI178
aI12
aI5
aI230
aI47
aI47
aI15
aI5
aI12
aI5
aI1078
aI0
aI146
aI0
aI45
aI1
aI45
aI116
aI1079
aI253
aI1080
aI0
aI317
aI1081
aI0
aI0
aI1082
aI106
aI5
aI30
aI5
aI1
aI360
aI12
aI1
aI0
aI1083
aI1
aI1
aI1
aI0
aI1
aI10
aI0
aI45
aI0
aI1084
aI1
aI5
aI0
aI10
aI81
aI27
aI0
aI52
aI0
aI1085
aI0
aI1
aI56
aI0
aI39
aI5
aI1086
aI774
aI1
aI0
aI30
aI1087
aI5
aI52
aI467
aI1
aI1
aI0
aI1
aI68
aI10
aI5
aI107
aI45
aI1088
aI0
aI1089
aI1090
aI10
aI30
aI378
aI1091
aI45
aI1
aI110
aI1
aI0
aI1092
aI1093
aI1094
aI112
aI1
aI1
aI358
aI1095
aI0
aI1
aI0
aI1096
aI208
aI1
aI1097
aI1
aI120
aI294
aI5
aI1
aI53
aI0
aI10
aI1098
aI1
aI1
aI1
aI1099
aI10
aI10
aI53
aI1
aI5
aI30
aI1
aI1100
aI146
aI1
aI799
aI0
aI476
aI0
aI972
aI1
aI1
aI10
aI107
aI5
aI1
aI378
aI30
aI1101
aI976
aI110
aI1102
aI45
aI148
aI343
aI1103
aI1104
aI10
aI1
aI5
aI343
aI227
aI260
aI11
aI0
aI45
aI1
aI1105
aI1
aI45
aI10
aI12
aI0
aI1106
aI53
aI0
aI0
aI22
aI1
aI0
aI5
aI182
aI1107
aI0
aI118
aI56
aI47
aI57
aI148
aI39
aI0
aI1
aI0
aI53
aI1108
aI1109
aI1
aI972
aI0
aI45
aI0
aI0
aI10
aI170
aI1110
aI265
aI1111
aI0
aI575
aI1112
aI30
aI0
aI182
aI1113
aI1
aI55
aI0
aI0
aI1
aI10
aI1114
aI107
aI1
aI178
aI135
aI227
aI45
aI294
aI1
aI0
aI139
aI139
aI1
aI1
aI146
aI10
aI1
aI1115
aI60
aI5
aI1116
aI120
aI1117
aI137
aI1118
aI39
aI1119
aI1120
aI864
aI538
aI0
aI1121
aI0
aI30
aI5
aI1122
aI1123
aI1
aI139
aI0
aI45
aI1124
aI56
aI12
aI47
aI0
aI1125
aI30
aI182
aI1126
aI45
aI1
aI10
aI1
aI1127
aI5
aI1
aI1128
aI5
aI1129
aI39
aI1
aI1
aI5
aI10
aI45
aI100
aI1
aI93
aI53
aI1
aI0
aI1130
aI139
aI1
aI1
aI5
aI0
aI1
aI1
aI0
aI700
aI1
aI47
aI496
aI954
aI205
aI1
aI0
aI45
aI52
aI5
aI5
aI228
aI22
aI1
aI188
aI5
aI1
aI32
aI0
aI1
aI265
aI688
aI1
aI23
aI5
aI1
aI1
aI1
aI5
aI1
aI10
aI47
aI89
aI0
aI1131
aI1132
aI1
aI12
aI1
aI1133
aI1134
aI35
aI10
aI1
aI47
aI1135
aI89
aI56
aI5
aI30
aI798
aI1136
aI267
aI56
aI12
aI1137
aI1138
aI13
aI416
aI68
aI53
aI0
aI57
aI5
aI10
aI1
aI0
aI10
aI28
aI1
aI1
aI0
aI1139
aI1
aI1140
aI1
aI5
aI0
aI467
aI467
aI45
aI253
aI0
aI1141
aI30
aI1
aI1
aI1142
aI1143
aI1
aI253
aI57
aI25
aI1144
aI1145
aI5
aI1146
aI1
aI1
aI0
aI10
aI1147
aI1
aI139
aI25
aI1148
aI10
aI0
aI19
aI19
aI1149
aI1
aI30
aI81
aI1150
aI1
aI1151
aI60
aI1152
aI45
aI1153
aI854
aI1
aI53
aI1
aI5
aI1
aI1154
aI1
aI1
aI360
aI0
aI1
aI1
aI0
aI146
aI27
aI1155
aI0
aI1156
aI0
aI1157
aI135
aI1
aI148
aI45
aI67
aI81
aI0
aI253
aI1
aI107
aI1
aI1158
aI1
aI5
aI52
aI29
aI265
aI146
aI45
aI10
aI0
aI428
aI1159
aI45
aI1160
aI1161
aI1038
aI5
aI117
aI0
aI1162
aI1
aI1
aI1
aI1
aI1163
aI0
aI1
aI52
aI1164
aI1
aI1165
aI436
aI56
aI391
aI1166
aI640
aI10
aI1
aI27
aI146
aI732
aI330
aI1
aI924
aI1
aI30
aI1
aI0
aI608
aI1167
aI1168
aI28
aI25
aI10
aI1169
aI53
aI1
aI1
aI1
aI1
aI45
aI0
aI5
aI39
aI1170
aI28
aI1171
aI15
aI0
aI22
aI0
aI30
aI0
aI593
aI1172
aI10
aI0
aI1
aI1
aI45
aI1
aI1
aI1
aI1
aI1173
aI1174
aI1175
aI12
aI1176
aI34
aI1177
aI10
aI1
aI0
aI30
aI0
aI0
aI12
aI1
aI1178
aI146
aI51
aI145
aI1179
aI1180
aI10
aI1
aI1
aI1
aI5
aI1
aI1181
aI1
aI102
aI1182
aI15
aI301
aI1
aI10
aI5
aI28
aI1
aI1183
aI330
aI68
aI39
aI0
aI1
aI10
aI45
aI68
aI91
aI1
aI1184
aI10
aI120
aI5
aI10
aI697
aI969
aI0
aI1
aI1
aI10
aI944
aI0
aI1
aI5
aI1185
aI1
aI534
aI51
aI1186
aI27
aI0
aI10
aI10
aI1166
aI0
aI25
aI22
aI12
aI0
aI1
aI81
aI5
aI253
aI1
aI1187
aI10
aI1
aI56
aI5
aI1188
aI450
aI1
aI1
aI10
aI294
aI60
aI1
aI1189
aI1
aI332
aI56
aI1
aI1
aI548
aI1
aI52
aI45
aI1190
aI1191
aI5
aI1192
aI1193
aI1194
aI0
aI0
aI1
aI801
aI1
aI1195
aI1196
aI15
aI12
aI1197
aI1198
aI53
aI1
aI593
aI154
aI10
aI10
aI139
aI294
aI0
aI0
aI1
aI1199
aI1200
aI349
aI5
aI337
aI128
aI139
aI1098
aI93
aI82
aI1
aI5
aI51
aI1
aI12
aI809
aI47
aI1
aI1
aI5
aI120
aI379
aI55
aI1
aI22
aI0
aI972
aI0
aI1
aI107
aI479
aI1201
aI1
aI1202
aI0
aI1
aI1
aI1
aI1
aI1203
aI75
aI1204
aI1
aI906
aI1205
aI1206
aI1
aI1207
aI1208
aI75
aI52
aI0
aI5
aI0
aI337
aI1
aI1
aI57
aI53
aI5
aI5
aI30
aI293
aI1209
aI39
aI53
aI575
aI294
aI22
aI56
aI32
aI1
aI1
aI1210
aI5
aI1
aI1
aI294
aI19
aI1
aI1
aI56
aI1
aI45
aI1
aI1211
aI553
aI1
aI1
aI0
aI5
aI92
aI1
aI30
aI198
aI0
aI5
aI27
aI1
aI5
aI45
aI117
aI0
aI703
aI1
aI107
aI15
aI1
aI1212
aI1
aI1
aI56
aI1
aI1108
aI1
aI45
aI10
aI0
aI1
aI1213
aI53
aI28
aI45
aI1214
aI1215
aI5
aI45
aI1
aI1216
aI0
aI294
aI1
aI92
aI104
aI1
aI27
aI5
aI1051
aI830
aI56
aI1
aI34
aI1217
aI1218
aI5
aI1
aI1219
aI5
aI1220
aI0
aI12
aI5
aI1221
aI45
aI1
aI1083
aI30
aI1222
aI56
aI15
aI32
aI1223
aI1224
aI12
aI45
aI117
aI45
aI109
aI1225
aI1
aI1226
aI23
aI1227
aI1228
aI218
aI1048
aI1229
aI12
aI5
aI112
aI0
aI12
aI1230
aI52
aI188
aI1
aI1231
aI267
aI45
aI1
aI30
aI1232
aI144
aI1
aI0
aI68
aI81
aI1
aI0
aI5
aI1
aI5
aI60
aI1
aI109
aI12
aI1
aI1
aI253
aI0
aI27
aI8
aI25
aI10
aI208
aI0
aI0
aI45
aI5
aI1
aI1233
aI81
aI459
aI1234
aI1235
aI253
aI0
aI1236
aI1237
aI146
aI56
aI5
aI1
aI182
aI1238
aI1
aI1
aI1
aI5
aI328
aI120
aI45
aI57
aI139
aI107
aI1
aI10
aI5
aI0
aI1239
aI1
aI1240
aI1241
aI10
aI10
aI459
aI5
aI1067
aI135
aI53
aI1242
aI1
aI56
aI1243
aI56
aI1244
aI467
aI1
aI167
aI1245
aI1
aI1246
aI16
aI146
aI32
aI1083
aI10
aI5
aI1247
aI107
aI1
aI1248
aI1
aI12
aI10
aI47
aI1
aI265
aI57
aI1249
aI732
aI28
aI5
aI30
aI1250
aI336
aI1
aI911
aI1
aI45
aI0
aI5
aI53
aI106
aI1251
aI14
aI52
aI0
aI1252
aI1253
aI53
aI5
aI652
aI1254
aI10
aI1
aI0
aI1255
aI1256
aI1257
aI10
aI45
aI1
aI1
aI1
aI1258
aI0
aI5
aI81
aI294
aI0
aI1
aI1259
aI1260
aI5
aI1261
aI0
aI1
aI1
aI1030
aI5
aI1262
aI1
aI10
aI53
aI5
aI12
aI13
aI178
aI1263
aI1
aI1264
aI12
aI1265
aI1266
aI1267
aI39
aI81
aI25
aI1268
aI697
aI1
aI0
aI5
aI1
aI1108
aI1
aI1
aI1269
aI159
aI1
aI80
aI0
aI1270
aI47
aI1
aI104
aI1271
aI10
aI1
aI12
aI1
aI117
aI1272
aI1
aI55
aI28
aI22
aI5
aI32
aI267
aI182
aI0
aI1
aI1108
aI0
aI227
aI112
aI47
aI1273
aI45
aI337
aI1
aI1274
aI39
aI12
aI212
aI1
aI45
aI309
aI1
aI1275
aI52
aI294
aI1276
aI45
aI5
aI0
aI139
aI146
aI139
aI1277
aI45
aI1278
aI0
aI45
aI89
aI1279
aI0
aI16
aI10
aI0
aI19
aI265
aI0
aI146
aI1
aI1
aI1
aI53
aI428
aI53
aI1280
aI1
aI5
aI10
aI1281
aI1
aI22
aI1
aI1
aI45
aI1
aI510
aI22
aI0
aI165
aI1282
aI22
aI32
aI22
aI116
aI0
aI660
aI314
aI68
aI5
aI1
aI1
aI1283
aI686
aI29
aI1284
aI1
aI611
aI1285
aI1286
aI12
aI1287
aI47
aI0
aI5
aI1
aI112
aI1
aI1
aI298
aI0
aI5
aI1288
aI5
aI1289
aI10
aI1290
aI0
aI0
aI1291
aI924
aI12
aI91
aI244
aI1292
aI1293
aI16
aI1294
aI1295
aI1
aI126
aI954
aI47
aI1
aI126
aI1
aI1
aI1
aI107
aI1296
aI1297
aI102
aI10
aI1
aI1
aI1
aI1
aI1
aI1
aI1
aI1298
aI57
aI842
aI10
aI5
aI0
aI45
aI0
aI0
aI1299
aI53
aI194
aI1
aI1
aI1
aI12
aI1
aI310
aI139
aI188
aI1300
aI1
aI57
aI0
aI45
aI1301
aI10
aI11
aI951
aI1302
aI0
aI1
aI107
aI467
aI874
aI1
aI5
aI248
aI126
aI0
aI22
aI23
aI1303
aI261
aI1304
aI1
aI1305
aI1
aI0
aI1
aI300
aI0
aI1
aI110
aI10
aI1
aI374
aI14
aI56
aI1306
aI1307
aI1308
aI10
aI1
aI1309
aI45
aI146
aI0
aI1310
aI30
aI1
aI39
aI1311
aI343
aI1
aI1
aI942
aI1
aI926
aI1312
aI1
aI1313
aI0
aI1
aI1
aI104
aI1
aI1
aI1
aI1
aI467
aI56
aI0
aI5
aI1314
aI1
aI53
aI399
aI1
aI0
aI1
aI1
aI1
aI30
aI1315
aI146
aI1
aI1141
aI173
aI1316
aI30
aI45
aI1
aI253
aI830
aI1317
aI109
aI294
aI1
aI1318
aI1
aI1319
aI310
aI1
aI1
aI0
aI81
aI1320
aI120
aI1321
aI1322
aI1
aI5
aI1323
aI1
aI27
aI1
aI1324
aI1325
aI1326
aI1327
aI120
aI1
aI1
aI1328
aI5
aI104
aI1329
aI57
aI65
aI45
aI81
aI5
aI1
aI1330
aI1
aI1
aI1331
aI1
aI89
aI102
aI647
aI52
aI5
aI1332
aI1090
aI55
aI631
aI0
aI1
aI1333
aI231
aI1334
aI1335
aI81
aI1336
aI0
aI218
aI1337
aI57
aI1
aI1
aI165
aI120
aI1
aI0
aI10
aI1338
aI109
aI208
aI146
aI81
aI1
aI0
aI915
aI47
aI1339
aI1340
aI10
aI146
aI5
aI548
aI0
aI1
aI915
aI1
aI188
aI590
aI12
aI12
aI0
aI1
aI30
aI1
aI28
aI801
aI81
aI0
aI1
aI44
aI261
aI488
aI1341
aI0
aI0
aI1
aI5
aI109
aI139
aI1342
aI496
aI259
aI53
aI435
aI5
aI0
aI1343
aI135
aI1344
aI1345
aI1346
aI1347
aI1
aI844
aI5
aI19
aI112
aI10
aI1348
aI952
aI5
aI1349
aI0
aI1350
aI1351
aI1
aI1
aI19
aI1
aI0
aI236
aI1
aI0
aI39
aI23
aI1352
aI1353
aI1354
aI12
aI330
aI11
aI290
aI32
aI0
aI0
aI45
aI1355
aI0
aI0
aI0
aI0
aI1
aI182
aI1
aI56
aI1
aI1356
aI1
aI1
aI1
aI1
aI1357
aI0
aI1
aI1
aI1358
aI834
aI52
aI13
aI117
aI53
aI1359
aI1360
aI1
aI1361
aI343
aI53
aI45
aI1
aI1362
aI57
aI1
aI5
aI173
aI5
aI45
aI10
aI1
aI1
aI911
aI1
aI53
aI57
aI317
aI52
aI120
aI0
aI0
aI1
aI53
aI1323
aI146
aI1
aI28
aI0
aI377
aI1
aI22
aI1363
aI45
aI309
aI1364
aI1
aI799
aI53
aI15
aI300
aI0
aI5
aI1365
aI915
aI1
aI92
aI1
aI22
aI0
aI1
aI110
aI302
aI53
aI739
aI1
aI5
aI0
aI313
aI1366
aI12
aI1367
aI1368
aI1
aI39
aI1369
aI12
aI120
aI1
aI1370
aI1371
aI38
aI53
aI1
aI0
aI0
aI1
aI1372
aI30
aI117
aI5
aI257
aI13
aI703
aI0
aI1
aI0
aI1373
aI51
aI1374
aI10
aI1375
aI28
aI584
aI1
aI106
aI1376
aI1051
aI89
aI227
aI1377
aI1378
aI10
aI10
aI30
aI91
aI1
aI1
aI1379
aI0
aI1
aI10
aI93
aI1
aI1
aI13
aI1
aI0
aI253
aI1
aI0
aI12
aI0
aI10
aI1380
aI45
aI1
aI1
aI296
aI16
aI5
aI45
aI30
aI52
aI146
aI1
aI5
aI47
aI337
aI10
aI30
aI64
aI1381
aI1382
aI253
aI1
aI1383
aI253
aI147
aI0
aI45
aI5
aI378
aI1
aI1
aI0
aI30
aI5
aI1384
aI1
aI1
aI1
aI1385
aI1
aI1
aI45
aI45
aI56
aI146
aI1
aI10
aI1
aI5
aI81
aI56
aI10
aI640
aI64
aI0
aI305
aI1386
aI285
aI248
aI1387
aI1131
aI146
aI1
aI1388
aI1
aI1389
aI1
aI0
aI1
aI1
aI53
aI0
aI1390
aI10
aI120
aI337
aI1391
aI255
aI1392
aI55
aI0
aI1
aI1393
aI1
aI1394
aI1
aI109
aI91
aI300
aI1
aI1
aI1395
aI1
aI1
aI0
aI1
aI1
aI1
aI1148
aI1
aI56
aI0
aI1396
aI10
aI45
aI10
aI45
aI1397
aI1398
aI1
aI89
aI55
aI1
aI45
aI56
aI182
aI39
aI10
aI1399
aI1062
aI81
aI1400
aI798
aI1
aI47
aI5
aI12
aI1
aI383
aI68
aI208
aI0
aI1
aI1
aI231
aI120
aI800
aI53
aI1
aI5
aI1401
aI1402
aI55
aI1403
aI801
aI47
aI1
aI0
aI1
aI253
aI1
aI45
aI0
aI300
aI1
aI5
aI1404
aI106
aI45
aI8
aI0
aI30
aI53
aI1405
aI81
aI1
aI1
aI5
aI117
aI1
aI12
aI1
aI1406
aI12
aI253
aI0
aI1
aI15
aI12
aI1407
aI0
aI1408
aI1409
aI1410
aI182
aI53
aI0
aI1411
aI30
aI139
aI0
aI1
aI5
aI1412
aI53
aI22
aI1
aI1
aI784
aI337
aI1413
aI1
aI1
aI1414
aI1
aI1415
aI108
aI1416
aI1417
aI1418
aI53
aI1
aI47
aI1419
aI0
aI208
aI1420
aI1
aI1421
aI0
aI1422
aI0
aI0
aI120
aI1423
aI120
aI1
aI47
aI10
aI1
aI1330
aI1424
aI1
aI1425
aI90
aI1050
aI1
aI1
aI265
aI1426
aI265
aI16
aI0
aI47
aI22
aI1427
aI0
aI16
aI1
aI126
aI39
aI10
aI0
aI1
aI5
aI1
aI10
aI0
aI1428
aI208
aI45
aI1429
aI1
aI208
aI1
aI1
aI1
aI15
aI0
aI1
aI45
aI8
aI10
aI5
aI1430
aI10
aI56
aI0
aI0
aI5
aI60
aI1431
aI10
aI182
aI1432
aI5
aI11
aI30
aI294
aI32
aI5
aI10
aI1
aI1
aI22
aI1
aI1
aI109
aI1433
aI294
aI1
aI22
aI1015
aI1434
aI854
aI5
aI1435
aI47
aI5
aI1
aI1436
aI1
aI81
aI1
aI1
aI1
aI250
aI1
aI1437
aI32
aI5
aI1
aI1
aI1
aI589
aI212
aI1438
aI10
aI1
aI56
aI1439
aI1
aI1
aI1440
aI178
aI28
aI1209
aI45
aI68
aI1441
aI19
aI30
aI218
aI146
aI700
aI126
aI0
aI45
aI1
aI0
aI16
aI56
aI1
aI294
aI2
aI91
aI146
aI47
aI300
aI89
aI1442
aI972
aI0
aI701
aI1249
aI1
aI45
aI1443
aI47
aI1
aI1
aI1108
aI5
aI64
aI10
aI196
aI1444
aI1445
aI1446
aI1447
aI1
aI1
aI1448
aI0
aI1449
aI1450
aI0
aI450
aI1451
aI0
aI1
aI1
aI135
aI1452
aI1
aI1
aI1453
aI56
aI1454
aI141
aI46
aI5
aI56
aI39
aI1455
aI1
aI227
aI0
aI10
aI1188
aI1456
aI358
aI5
aI430
aI45
aI5
aI139
aI1
aI1
aI45
aI47
aI1
aI10
aI10
aI1
aI32
aI81
aI45
aI1
aI0
aI1
aI1
aI1
aI0
aI0
aI1457
aI0
aI117
aI1
aI146
aI10
aI5
aI1
aI1
aI0
aI0
aI188
aI1458
aI117
aI1
aI27
aI5
aI1459
aI28
aI337
aI0
aI5
aI75
aI1
aI430
aI339
aI1460
aI1
aI1
aI1461
aI5
aI1
aI1
aI1
aI1462
aI1463
aI1
aI1
aI1
aI45
aI47
aI1464
aI1
aI15
aI739
aI117
aI1
aI1
aI12
aI1
aI0
aI10
aI1
aI0
aI0
aI5
aI0
aI1465
aI1
aI1466
aI0
aI5
aI1
aI1467
aI28
aI0
aI1468
aI22
aI0
aI1469
aI294
aI0
aI0
aI1470
aI0
aI0
aI0
aI1
aI0
aI1471
aI1472
aI0
aI146
aI53
aI0
aI5
aI261
aI120
aI0
aI253
aI0
aI0
aI117
aI1
aI12
aI1473
aI1474
aI47
aI135
aI22
aI294
aI1475
aI1476
aI553
aI47
aI1
aI1
aI1477
aI12
aI0
aI294
aI5
aI10
aI1
aI1478
aI1
aI55
aI441
aI1
aI0
aI11
aI1479
aI1480
aI1481
aI128
aI1482
aI1483
aI593
aI1484
aI1485
aI5
aI1
aI45
aI1
aI5
aI253
aI109
aI1
aI1
aI1486
aI293
aI1487
aI1
aI52
aI383
aI1488
aI146
aI144
aI1
aI5
aI135
aI1489
aI5
aI53
aI250
aI10
aI0
aI10
aI117
aI1
aI1490
aI11
aI1213
aI22
aI1491
aI1492
aI117
aI10
aI1
aI1493
aI1494
aI1495
aI1035
aI300
aI75
aI1
aI593
aI57
aI1
aI10
aI0
aI5
aI52
aI173
aI0
aI146
aI1496
aI1
aI0
aI1
aI1497
aI459
aI16
aI5
aI976
aI1
aI0
aI1
aI30
aI1
aI1498
aI479
aI1
aI300
aI47
aI0
aI10
aI0
aI1499
aI1
aI227
aI56
aI14
aI57
aI47
aI1
aI153
aI1
aI5
aI1500
aI158
aI45
aI1
aI5
aI100
aI56
aI0
aI67
aI28
aI1
aI656
aI386
aI32
aI0
aI47
aI12
aI0
aI1
aI1
aI31
aI1
aI1501
aI882
aI0
aI1
aI53
aI358
aI799
aI10
aI1
aI593
aI253
aI47
aI102
aI12
aI300
aI28
aI30
aI45
aI5
aI5
aI0
aI1502
aI1
aI1
aI30
aI253
aI1503
aI91
aI0
aI1
aI374
aI0
aI1
aI1504
aI454
aI0
aI1505
aI53
aI1044
aI10
aI585
aI545
aI47
aI45
aI13
aI1506
aI0
aI92
aI10
aI39
aI49
aI1403
aI380
aI5
aI106
aI0
aI128
aI12
aI53
aI1507
aI52
aI52
aI1508
aI1509
aI1
aI45
aI460
aI120
aI989
aI146
aI1510
aI476
aI0
aI417
aI774
aI22
aI15
aI45
aI5
aI146
aI28
aI30
aI1
aI47
aI0
aI5
aI1108
aI32
aI27
aI53
aI1
aI28
aI28
aI91
aI1
aI12
aI28
aI12
aI1511
aI1512
aI1
aI39
aI55
aI1
aI1
aI1513
aI1
aI1
aI1
aI10
aI10
aI1514
aI51
aI0
aI45
aI15
aI488
aI10
aI1
aI1515
aI643
aI1
aI1
aI1
aI323
aI1516
aI1352
aI584
aI39
aI0
aI56
aI328
aI1
aI1517
aI56
aI0
aI745
aI89
aI28
aI165
aI496
aI1518
aI1
aI0
aI479
aI47
aI30
aI135
aI52
aI141
aI1519
aI12
aI1520
aI343
aI135
aI1
aI1
aI1521
aI5
aI5
aI0
aI14
aI1522
aI732
aI53
aI5
aI436
aI1
aI104
aI1523
aI1524
aI53
aI0
aI167
aI436
aI1
aI1
aI27
aI0
aI1525
aI584
aI139
aI13
aI1526
aI1
aI248
aI260
aI39
aI56
aI0
aI940
aI1527
aI1528
aI1529
aI383
aI107
aI0
aI104
aI0
aI1
aI1530
aI1531
aI1
aI22
aI47
aI1
aI5
aI5
aI0
aI1
aI1532
aI104
aI1
aI1
aI16
aI1
aI1389
aI1533
aI139
aI0
aI467
aI1534
aI0
aI534
aI0
aI1535
aI1536
aI5
aI1
aI5
aI1192
aI22
aI1
aI10
aI1537
aI1538
aI1539
aI1
aI1540
aI379
aI1541
aI98
aI28
aI1542
aI1
aI1
aI1
aI12
aI1543
aI703
aI30
aI1544
aI139
aI10
aI52
aI45
aI0
aI1
aI550
aI1545
aI5
aI0
aI1546
aI1
aI1547
aI10
aI1
aI5
aI1
aI1
aI93
aI5
aI1548
aI1549
aI12
aI5
aI1
aI5
aI28
aI1
aI1
aI208
aI1550
aI10
aI28
aI132
aI15
aI1
aI1
aI1551
aI15
aI52
aI0
aI0
aI22
aI0
aI1
aI1552
aI12
aI1553
aI19
aI1554
aI212
aI1555
aI1556
aI10
aI45
aI1557
aI1558
aI0
aI56
aI22
aI120
aI1
aI0
aI32
aI1211
aI5
aI0
aI146
aI5
aI89
aI1559
aI1560
aI439
aI0
aI18
aI1
aI10
aI1
aI1
aI5
aI1
aI45
aI1
aI1561
aI16
aI68
aI1
aI28
aI1
aI1562
aI1
aI1
aI120
aI53
aI10
aI45
aI1
aI1
aI1
aI0
aI1
aI0
aI1563
aI1564
aI10
aI0
aI5
aI1
aI34
aI915
aI5
aI1565
aI1
aI0
aI1
aI5
aI57
aI182
aI1566
aI1
aI1567
aI0
aI0
aI1568
aI1
aI1
aI0
aI1439
aI1
aI798
aI109
aI1
aI1569
aI1
aI1570
aI5
aI0
aI47
aI1
aI0
aI294
aI1
aI10
aI104
aI178
aI5
aI0
aI15
aI1
aI1
aI231
aI0
aI1571
aI284
aI1572
aI10
aI0
aI12
aI45
aI585
aI1
aI227
aI1573
aI1574
aI462
aI0
aI1365
aI0
aI1144
aI1
aI0
aI1575
aI1
aI220
aI12
aI1
aI45
aI0
aI1
aI374
aI52
aI12
aI1576
aI1577
aI1578
aI1
aI1164
aI1
aI1
aI45
aI93
aI1579
aI300
aI5
aI1
aI10
aI0
aI0
aI1580
aI1
aI10
aI47
aI5
aI0
aI0
aI92
aI1581
aI1582
aI0
aI12
aI0
aI81
aI1023
aI15
aI1583
aI1
aI1
aI0
aI1
aI5
aI1584
aI5
aI10
aI575
aI1094
aI53
aI5
aI1
aI337
aI5
aI1585
aI10
aI0
aI109
aI47
aI124
aI56
aI1
aI12
aI0
aI1586
aI1
aI182
aI0
aI1
aI120
aI1
aI1
aI1587
aI30
aI22
aI1588
aI1
aI1589
aI139
aI435
aI1079
aI1590
aI64
aI47
aI10
aI1591
aI1592
aI1593
aI10
aI146
aI1415
aI732
aI1
aI1318
aI976
aI1
aI1
aI1594
aI1595
aI28
aI5
aI1596
aI1
aI1
aI12
aI1597
aI1
aI1
aI0
aI1
aI539
aI19
aI0
aI15
aI53
aI0
aI12
aI5
aI1598
aI374
aI732
aI360
aI120
aI135
aI91
aI1
aI1
aI1
aI12
aI1
aI1501
aI1385
aI5
aI30
aI1
aI1599
aI10
aI1600
aI1601
aI0
aI1602
aI47
aI12
aI146
aI1
aI0
aI1
aI1603
aI30
aI1604
aI1605
aI32
aI1606
aI0
aI45
aI1607
aI1608
aI2
aI294
aI1
aI1
aI1609
aI5
aI5
aI120
aI1
aI1
aI106
aI1610
aI1
aI146
aI5
aI10
aI1
aI135
aI182
aI12
aI1
aI1611
aI22
aI1612
aI208
aI0
aI1
aI0
aI107
aI265
aI5
aI1
aI10
aI1
aI1613
aI32
aI45
aI1614
aI1
aI22
aI107
aI1
aI25
aI1
aI45
aI1
aI1
aI1615
aI1
aI55
aI1
aI1
aI1616
aI32
aI1617
aI5
aI1618
aI110
aI1
aI1
aI1619
aI13
aI128
aI1
aI45
aI56
aI12
aI131
aI1620
aI1
aI1
aI5
aI145
aI1621
aI10
aI1622
aI1623
aI25
aI1624
aI244
aI697
aI27
aI135
aI1
aI0
aI1
aI1625
aI0
aI575
aI785
aI138
aI102
aI23
aI109
aI1
aI1
aI19
aI1626
aI120
aI53
aI250
aI32
aI1627
aI1
aI10
aI0
aI1310
aI1628
aI1
aI253
aI1
aI32
aI5
aI1196
aI5
aI1
aI1
aI0
aI139
aI16
aI218
aI0
aI1108
aI1
aI244
aI1629
aI1
aI732
aI1630
aI10
aI52
aI236
aI1
aI1
aI0
aI5
aI10
aI265
aI10
aI1631
aI1632
aI1633
aI178
aI5
aI1
aI0
aI1634
aI146
aI1
aI182
aI1228
aI0
aI5
aI146
aI1635
aI47
aI0
aI1636
aI182
aI1637
aI47
aI1
aI15
aI89
aI30
aI1638
aI1182
aI52
aI45
aI89
aI5
aI45
aI12
aI786
aI47
aI1
aI45
aI1
aI10
aI1
aI1
aI1535
aI1
aI1
aI1639
aI1
aI135
aI22
aI22
aI30
aI53
aI703
aI0
aI47
aI12
aI267
aI1
aI56
aI30
aI47
aI1
aI1
aI10
aI1
aI52
aI5
aI1640
aI1
aI39
aI0
aI1641
aI1642
aI300
aI5
aI104
aI1
aI1643
aI28
aI250
aI55
aI1644
aI1
aI0
aI1
aI52
aI457
aI1
aI1645
aI56
aI592
aI374
aI1
aI1
aI52
aI801
aI496
aI1301
aI1646
aI1635
aI52
aI1
aI1
aI1
aI1
aI1
aI732
aI68
aI12
aI0
aI47
aI0
aI1
aI1
aI56
aI1
aI1647
aI1
aI19
aI1
aI1
aI10
aI16
aI1648
aI5
aI1649
aI47
aI100
aI1650
aI1
aI10
aI30
aI942
aI1
aI120
aI1
aI575
aI1
aI1
aI47
aI1651
aI1
aI1
aI0
aI47
aI106
aI10
aI1
aI56
aI1
aI52
aI34
aI120
aI45
aI1652
aI30
aI53
aI1653
aI1
aI0
aI1654
aI1
aI1655
aI1
aI52
aI126
aI1656
aI1
aI49
aI477
aI303
aI227
aI0
aI337
aI1657
aI45
aI0
aI1658
aI56
aI53
aI296
aI972
aI1
aI28
aI12
aI1659
aI57
aI1
aI294
aI5
aI45
aI1660
aI47
aI53
aI1661
aI1389
aI12
aI1662
aI343
aI212
aI10
aI5
aI296
aI10
aI1
aI1
aI1663
aI220
aI12
aI22
aI0
aI284
aI1
aI1
aI265
aI106
aI374
aI1
aI1
aI1
aI5
aI0
aI1664
aI1665
aI1
aI1666
aI1667
aI1668
aI1669
aI32
aI1670
aI1671
aI1
aI45
aI0
aI10
aI5
aI1672
aI253
aI10
aI1673
aI394
aI0
aI1674
aI145
aI47
aI1675
aI1676
aI0
aI1677
aI5
aI5
aI1678
aI1679
aI91
aI53
aI5
aI1
aI0
aI0
aI1
aI0
aI1680
aI175
aI310
aI1542
aI146
aI56
aI479
aI10
aI1681
aI582
aI60
aI12
aI1682
aI10
aI1
aI47
aI5
aI53
aI358
aI57
aI1
aI5
aI830
aI57
aI47
aI1
aI10
aI1683
aI1684
aI1685
aI0
aI1
aI1
aI12
aI1
aI30
aI15
aI1
aI1686
aI64
aI1687
aI553
aI1
aI15
aI236
aI1
aI10
aI45
aI56
aI1
aI5
aI12
aI383
aI0
aI64
aI1
aI23
aI10
aI767
aI1688
aI479
aI22
aI1689
aI44
aI1310
aI265
aI491
aI10
aI1690
aI0
aI1
aI30
aI53
aI1
aI1691
aI0
aI81
aI1692
aI1693
aI1694
aI1695
aI1
aI91
aI1696
aI1697
aI1
aI843
aI1698
aI53
aI1699
aI1700
aI253
aI1701
aI1702
aI285
aI12
aI5
aI1
aI1703
aI1704
aI5
aI5
aI1
aI10
aI5
aI53
aI173
aI10
aI1
aI10
aI1705
aI0
aI28
aI120
aI30
aI927
aI1
aI1706
aI12
aI1
aI69
aI0
aI1707
aI1
aI1
aI1708
aI39
aI556
aI1
aI120
aI1
aI1709
aI1
aI1
aI32
aI56
aI5
aI139
aI56
aI30
aI1710
aI28
aI1711
aI1712
aI12
aI1713
aI56
aI227
aI153
aI10
aI358
aI1466
aI10
aI132
aI182
aI1714
aI10
aI1
aI16
aI30
aI1
aI5
aI1
aI265
aI1
aI1
aI1715
aI45
aI1
aI1263
aI413
aI0
aI45
aI0
aI1
aI1716
aI0
aI28
aI939
aI1
aI1717
aI0
aI1
aI56
aI5
aI1
aI1
aI68
aI640
aI1
aI365
aI146
aI1718
aI5
aI109
aI64
aI640
aI5
aI30
aI1
aI708
aI801
aI1
aI1
aI1120
aI10
aI1
aI830
aI1
aI102
aI686
aI0
aI0
aI1719
aI0
aI592
aI1
aI0
aI12
aI1
aI30
aI1
aI57
aI56
aI1
aI139
aI1
aI1
aI45
aI0
aI135
aI0
aI45
aI0
aI45
aI1720
aI1
aI287
aI5
aI12
aI10
aI1721
aI106
aI45
aI1722
aI0
aI1
aI468
aI462
aI12
aI19
aI1723
aI68
aI30
aI5
aI10
aI1339
aI5
aI47
aI0
aI1708
aI107
aI1
aI1724
aI1
aI1
aI1725
aI1
aI56
aI128
aI5
aI45
aI8
aI861
aI19
aI1
aI0
aI52
aI1
aI1726
aI1727
aI10
aI1728
aI294
aI0
aI1729
aI0
aI5
aI1730
aI539
aI10
aI392
aI1
aI5
aI5
aI52
aI5
aI117
aI0
aI1272
aI1
aI1228
aI467
aI53
aI0
aI47
aI45
aI166
aI146
aI52
aI1731
aI1732
aI1
aI1
aI1733
aI1
aI93
aI1
aI1734
aI0
aI1
aI1
aI1
aI1
aI800
aI1
aI0
aI5
aI81
aI1598
aI618
aI1735
aI34
aI1
aI1
aI5
aI1736
aI170
aI268
aI13
aI1737
aI10
aI1
aI1738
aI1012
aI52
aI1739
aI47
aI300
aI479
aI1740
aI1
aI1
aI10
aI0
aI30
aI1
aI120
aI1
aI1207
aI10
aI1
aI1741
aI337
aI1
aI15
aI294
aI0
aI56
aI12
aI1742
aI27
aI1
aI1
aI1743
aI47
aI12
aI1744
aI10
aI182
aI1745
aI19
aI53
aI1746
aI1
aI12
aI399
aI1
aI1747
aI1748
aI1749
aI45
aI0
aI915
aI23
aI19
aI10
aI32
aI1750
aI11
aI106
aI1
aI1751
aI53
aI52
aI1
aI12
aI45
aI16
aI1
aI1752
aI34
aI1753
aI5
aI30
aI1754
aI1755
aI1
aI1756
aI52
aI1166
aI1757
aI1329
aI1
aI498
aI1
aI0
aI0
aI44
aI91
aI1
aI1758
aI0
aI700
aI11
aI790
aI1
aI208
aI1
aI1759
aI53
aI227
aI8
aI1760
aI12
aI5
aI53
aI45
aI45
aI1761
aI1
aI1
aI0
aI39
aI360
aI1
aI1762
aI1763
aI10
aI1
aI1
aI1
aI16
aI1
aI1764
aI45
aI1
aI5
aI1765
aI146
aI374
aI1766
aI1767
aI1
aI110
aI5
aI343
aI81
aI1768
aI1769
aI81
aI12
aI110
aI47
aI1770
aI1771
aI117
aI1
aI1772
aI1773
aI1
aI28
aI32
aI45
aI175
aI1
aI1
aI374
aI5
aI141
aI30
aI0
aI1774
aI0
aI1775
aI1
aI1
aI0
aI1
aI761
aI107
aI120
aI1776
aI1
aI1
aI52
aI56
aI1777
aI212
aI208
aI386
aI56
aI47
aI10
aI30
aI1
aI1778
aI1779
aI1780
aI5
aI30
aI89
aI65
aI12
aI1781
aI10
aI68
aI15
aI30
aI13
aI1
aI294
aI1782
aI1
aI28
aI413
aI1783
aI0
aI102
aI27
aI1784
aI1785
aI343
aI244
aI317
aI763
aI227
aI15
aI16
aI56
aI1786
aI45
aI1079
aI1787
aI1
aI47
aI0
aI1788
aI19
aI1064
aI5
aI1
aI1789
aI0
aI1
aI27
aI5
aI1
aI1790
aI479
aI1791
aI5
aI1
aI0
aI830
aI45
aI1792
aI1
aI139
aI47
aI1793
aI120
aI1
aI12
aI1794
aI5
aI309
aI1
aI117
aI0
aI1
aI1795
aI1796
aI30
aI45
aI45
aI1797
aI0
aI10
aI1446
aI27
aI12
aI12
aI294
aI1
aI58
aI28
aI5
aI1
aI1798
aI10
aI1
aI5
aI5
aI1299
aI1
aI1799
aI56
aI265
aI5
aI1692
aI0
aI1800
aI1801
aI1802
aI565
aI337
aI1
aI1
aI1803
aI1
aI1406
aI1
aI1804
aI1
aI1
aI440
aI1510
aI1805
aI52
aI1743
aI1806
aI1692
aI590
aI5
aI1807
aI45
aI45
aI1
aI110
aI1808
aI109
aI0
aI1809
aI47
aI47
aI52
aI12
aI22
aI1
aI81
aI47
aI1810
aI1
aI1811
aI55
aI670
aI1
aI1812
aI536
aI5
aI135
aI5
aI5
aI1
aI1
aI52
aI1813
aI394
aI1
aI1
aI0
aI30
aI1
aI0
aI22
aI34
aI1
aI5
aI81
aI1
aI47
aI1814
aI1
aI0
aI1815
aI1816
aI1
aI337
aI1
aI5
aI1
aI81
aI906
aI45
aI1
aI154
aI1817
aI1
aI212
aI1692
aI1784
aI32
aI1
aI81
aI328
aI839
aI39
aI47
aI1818
aI1819
aI0
aI631
aI39
aI1
aI1
aI146
aI52
aI1820
aI1821
aI120
aI1822
aI1
aI0
aI5
aI0
aI30
aI1
aI660
aI10
aI0
aI12
aI1823
aI47
aI56
aI135
aI1824
aI12
aI104
aI1
aI0
aI477
aI1
aI52
aI1825
aI53
aI0
aI45
aI1826
aI30
aI146
aI30
aI0
aI844
aI39
aI1
aI1827
aI332
aI10
aI1164
aI16
aI1
aI1
aI75
aI0
aI1828
aI0
aI5
aI10
aI584
aI19
aI360
aI801
aI1
aI213
aI1044
aI45
aI5
aI1829
aI1830
aI1
aI1
aI126
aI392
aI5
aI1831
aI5
aI39
aI5
aI295
aI23
aI1832
aI1
aI1
aI1
aI1833
aI0
aI584
aI45
aI60
aI10
aI0
aI1
aI39
aI1
aI146
aI0
aI1834
aI45
aI1835
aI52
aI1836
aI28
aI491
aI39
aI1837
aI1
aI117
aI32
aI1838
aI5
aI18
aI102
aI120
aI1
aI182
aI479
aI1
aI1839
aI5
aI39
aI658
aI110
aI1
aI1
aI68
aI0
aI378
aI57
aI0
aI0
aI1840
aI1841
aI1842
aI5
aI296
aI1
aI5
aI1
aI1
aI1843
aI117
aI1844
aI0
aI1
aI96
aI1192
aI1845
aI1846
aI1703
aI1847
aI5
aI1
aI1
aI81
aI30
aI1
aI1
aI10
aI1848
aI10
aI68
aI30
aI5
aI0
aI221
aI1808
aI282
aI5
aI1
aI1
aI32
aI135
aI1
aI1
aI56
aI1
aI19
aI253
aI30
aI686
aI12
aI1849
aI1850
aI110
aI30
aI1
aI5
aI45
aI64
aI5
aI15
aI1851
aI0
aI22
aI12
aI124
aI1
aI0
aI0
aI0
aI30
aI1852
aI1
aI47
aI0
aI208
aI0
aI1853
aI5
aI10
aI1
aI1854
aI12
aI5
aI1
aI5
aI1855
aI1
aI1
aI139
aI1
aI1
aI45
aI1856
aI1857
aI1858
aI1489
aI12
aI5
aI166
aI575
aI1235
aI1859
aI45
aI45
aI1860
aI1
aI436
aI16
aI56
aI10
aI1
aI5
aI1
aI5
aI0
aI147
aI1861
aI10
aI27
aI52
aI1
aI1862
aI5
aI12
aI10
aI0
aI1863
aI5
aI1864
aI139
aI68
aI12
aI12
aI53
aI10
aI56
aI255
aI1728
aI5
aI250
aI12
aI1
aI1
aI175
aI1865
aI1866
aI477
aI45
aI1051
aI5
aI81
aI5
aI0
aI1867
aI0
aI47
aI1868
aI53
aI1869
aI1
aI68
aI0
aI1
aI1
aI64
aI1870
aI1
aI1
aI1
aI5
aI409
aI57
aI1
aI12
aI30
aI1
aI688
aI462
aI1871
aI5
aI1
aI1
aI0
aI29
aI1
aI5
aI284
aI45
aI89
aI139
aI1
aI9
aI1872
aI1
aI12
aI551
aI135
aI1873
aI10
aI0
aI1874
aI86
aI15
aI1
aI1310
aI56
aI1
aI30
aI5
aI1
aI1
aI0
aI1594
aI1
aI10
aI1
aI92
aI56
aI0
aI1
aI39
aI1
aI5
aI56
aI1875
aI498
aI1
aI545
aI1094
aI10
aI10
aI592
aI1876
aI5
aI0
aI1
aI1
aI1877
aI1
aI1
aI178
aI12
aI330
aI47
aI1501
aI0
aI1878
aI1
aI1
aI10
aI1
aI30
aI23
aI1
aI250
aI1
aI38
aI1879
aI45
aI1880
aI217
aI5
aI1310
aI1
aI1132
aI1
aI1051
aI128
aI1
aI10
aI10
aI1881
aI0
aI1
aI15
aI139
aI5
aI28
aI12
aI582
aI32
aI1882
aI1
aI1883
aI10
aI1884
aI1
aI409
aI10
aI45
aI39
aI16
aI1
aI1
aI16
aI1
aI0
aI1
aI45
aI28
aI28
aI1
aI1885
aI1886
aI0
aI52
aI28
aI90
aI1
aI1887
aI1
aI12
aI0
aI1888
aI5
aI954
aI593
aI564
aI5
aI1889
aI117
aI81
aI1890
aI1891
aI1
aI1
aI0
aI1
aI29
aI0
aI0
aI1
aI5
aI1892
aI1893
aI218
aI0
aI539
aI135
aI0
aI1
aI47
aI1638
aI218
aI212
aI1
aI617
aI10
aI0
aI476
aI213
aI1894
aI1
aI23
aI1
aI0
aI1
aI1895
aI8
aI1896
aI1
aI5
aI0
aI1897
aI1898
aI64
aI1627
aI1
aI1079
aI1899
aI52
aI13
aI1
aI1900
aI1
aI0
aI5
aI769
aI45
aI1
aI19
aI5
aI5
aI12
aI34
aI1901
aI106
aI56
aI56
aI1678
aI1
aI1
aI5
aI81
aI75
aI135
aI253
aI135
aI1
aI1
aI1902
aI0
aI107
aI1903
aI10
aI30
aI0
aI18
aI583
aI0
aI178
aI1
aI10
aI182
aI294
aI45
aI1
aI294
aI56
aI103
aI1
aI12
aI8
aI0
aI1
aI496
aI30
aI32
aI1
aI0
aI29
aI1
aI1
aI1
aI1
aI399
aI108
aI1904
aI56
aI1
aI1
aI0
aI1
aI1
aI10
aI328
aI1
aI30
aI30
aI39
aI39
aI92
aI1905
aI10
aI0
aI0
aI1
aI584
aI28
aI10
aI15
aI12
aI5
aI41
aI830
aI5
aI656
aI1
aI12
aI0
aI91
aI182
aI1
aI1571
aI0
aI1906
aI5
aI1907
aI1908
aI1909
aI677
aI1
aI1
aI290
aI5
aI1600
aI328
aI261
aI1
aI1
aI294
aI30
aI28
aI1910
aI30
aI462
aI64
aI1911
aI52
aI15
aI1912
aI0
aI0
aI1
aI1
aI1
aI139
aI45
aI22
aI45
aI1
aI30
aI1
aI22
aI1913
aI1129
aI1
aI45
aI5
aI12
aI5
aI618
aI1
aI0
aI1914
aI1915
aI0
aI55
aI488
aI932
aI1501
aI1
aI5
aI56
aI0
aI1916
aI0
aI0
aI1917
aI584
aI1918
aI1919
aI1920
aI0
aI5
aI278
aI30
aI1921
aI1
aI1922
aI10
aI53
aI56
aI1923
aI56
aI1
aI1
aI1051
aI1
aI45
aI1924
aI12
aI47
aI1925
aI5
aI1
aI0
aI0
aI1
aI1926
aI1
aI5
aI1
aI1
aI1
aI842
aI1927
aI1
aI972
aI972
aI1
aI1
aI1928
aI830
aI47
aI12
aI53
aI1929
aI52
aI1930
aI1931
aI1
aI1
aI0
aI1932
aI27
aI0
aI106
aI1933
aI309
aI98
aI68
aI1035
aI1
aI5
aI1934
aI1935
aI30
aI1936
aI1937
aI109
aI10
aI0
aI5
aI0
aI1
aI109
aI0
aI14
aI1
aI53
aI10
aI1
aI647
aI38
aI1
aI10
aI539
aI32
aI0
aI1938
aI28
aI45
aI1
aI47
aI0
aI55
aI1
aI1939
aI32
aI0
aI1
aI154
aI1940
aI801
aI28
aI1148
aI1
aI30
aI1941
aI732
aI462
aI253
aI1942
aI1943
aI1
aI81
aI1
aI548
aI1944
aI53
aI1
aI0
aI0
aI1945
aI5
aI0
aI1
aI1946
aI1947
aI253
aI1
aI102
aI1
aI1
aI495
aI253
aI1
aI1
aI1
aI1948
aI1
aI1
aI32
aI10
aI47
aI1487
aI0
aI1949
aI0
aI0
aI1
aI5
aI1
aI10
aI1
aI906
aI374
aI0
aI56
aI1
aI1950
aI39
aI1
aI19
aI1
aI81
aI915
aI30
aI1
aI1951
aI45
aI1757
aI0
aI1
aI12
aI1
aI1952
aI1953
aI107
aI1954
aI5
aI139
aI1955
aI53
aI1956
aI32
aI0
aI30
aI265
aI0
aI374
aI45
aI1
aI835
aI10
aI1957
aI64
aI0
aI1
aI15
aI5
aI1958
aI1959
aI12
aI10
aI64
aI1
aI45
aI107
aI1
aI1
aI15
aI1960
aI1
aI30
aI1961
aI177
aI12
aI254
aI22
aI1
aI1
aI0
aI1
aI1
aI1
aI1962
aI0
aI1963
aI45
aI57
aI1
aI34
aI57
aI120
aI1
aI0
aI56
aI45
aI660
aI1
aI0
aI1
aI77
aI45
aI52
aI52
aI30
aI1964
aI1
aI0
aI1965
aI30
aI296
aI265
aI1
aI1
aI53
aI1966
aI10
aI337
aI1
aI1
aI5
aI460
aI1
aI1
aI15
aI1
aI409
aI1
aI106
aI0
aI1967
aI1968
aI81
aI325
aI1
aI1
aI488
aI5
aI1
aI139
aI0
aI1969
aI5
aI0
aI14
aI842
aI27
aI1970
aI839
aI1571
aI1971
aI1972
aI56
aI0
aI1
aI0
aI0
aI856
aI1973
aI0
aI5
aI1974
aI1975
aI1245
aI53
aI462
aI593
aI0
aI5
aI32
aI1
aI1976
aI25
aI30
aI5
aI53
aI1977
aI1978
aI0
aI1979
aI10
aI1
aI1
aI47
aI52
aI56
aI1
aI1
aI5
aI146
aI1980
aI1
aI29
aI0
aI1981
aI1
aI1
aI1
aI47
aI0
aI0
aI1982
aI57
aI1
aI1983
aI1
aI1984
aI244
aI107
aI13
aI0
aI0
aI294
aI30
aI1
aI1
aI1
aI30
aI146
aI1985
aI291
aI102
aI5
aI1986
aI1
aI1987
aI1988
aI12
aI47
aI139
aI1
aI126
aI1989
aI53
aI56
aI1990
aI10
aI1991
aI10
aI296
aI1992
aI5
aI5
aI1
aI53
aI52
aI5
aI45
aI1
aI1993
aI0
aI0
aI0
aI81
aI1535
aI1994
aI428
aI1
aI1598
aI374
aI1
aI198
aI16
aI10
aI1
aI28
aI801
aI1995
aI1
aI253
aI1
aI1996
aI1
aI1286
aI1
aI0
aI104
aI1997
aI1998
aI39
aI1
aI0
aI1999
aI12
aI1466
aI1
aI100
aI0
aI2000
aI1
aI328
aI0
aI2001
aI1876
aI47
aI1
aI2002
aI2003
aI296
aI2004
aI23
aI1
aI1
aI30
aI0
aI1
aI112
aI2005
aI1310
aI1
aI0
aI139
aI55
aI1
aI30
aI2006
aI5
aI1
aI462
aI476
aI2007
aI30
aI5
aI64
aI1
aI1
aI10
aI1
aI2008
aI2009
aI1
aI2010
aI2011
aI2012
aI47
aI52
aI1
aI106
aI10
aI1
aI1
aI2013
aI12
aI45
aI1
aI1934
aI52
aI47
aI1
aI0
aI107
aI12
aI2014
aI5
aI0
aI47
aI1
aI1
aI2015
aI1908
aI0
aI10
aI1
aI0
aI2016
aI1
aI2017
aI656
aI1035
aI1
aI5
aI39
aI1
aI1
aI800
aI2018
aI467
aI146
aI975
aI45
aI173
aI134
aI253
aI10
aI18
aI0
aI2019
aI467
aI1
aI2020
aI2021
aI39
aI2022
aI2023
aI182
aI336
aI22
aI10
aI2024
aI1237
aI5
aI2025
aI0
aI10
aI2026
aI0
aI12
aI139
aI12
aI45
aI81
aI265
aI15
aI236
aI182
aI10
aI1383
aI2027
aI0
aI22
aI0
aI30
aI30
aI57
aI2028
aI10
aI30
aI1
aI1
aI2029
aI1
aI8
aI45
aI53
aI0
aI28
aI55
aI0
aI1565
aI1
aI1
aI2030
aI12
aI1
aI1
aI1
aI1
aI1663
aI1
aI0
aI32
aI799
aI2031
aI1
aI45
aI294
aI92
aI5
aI830
aI2032
aI32
aI732
aI109
aI56
aI2033
aI668
aI0
aI2034
aI2035
aI1
aI294
aI81
aI939
aI55
aI10
aI1177
aI2036
aI1
aI81
aI291
aI0
aI10
aI1051
aI1
aI10
aI1
aI146
aI2037
aI1
aI373
aI56
aI548
aI154
aI2038
aI10
aI57
aI0
aI2039
aI1
aI2040
aI45
aI265
aI10
aI1
aI98
aI656
aI45
aI135
aI0
aI52
aI2041
aI135
aI5
aI2042
aI93
aI1
aI64
aI2043
aI104
aI1
aI178
aI265
aI2044
aI1
aI467
aI10
aI5
aI5
aI2045
aI213
aI173
aI2046
aI27
aI56
aI290
aI1
aI64
aI972
aI328
aI2047
aI15
aI1
aI55
aI2026
aI0
aI358
aI2048
aI2049
aI0
aI1
aI522
aI1
aI120
aI0
aI1743
aI531
aI30
aI45
aI938
aI29
aI30
aI15
aI2050
aI10
aI1369
aI294
aI5
aI55
aI1
aI5
aI15
aI337
aI1
aI488
aI53
aI148
aI1
aI1
aI146
aI12
aI1
aI220
aI53
aI5
aI1
aI1
aI2051
aI301
aI81
aI2052
aI2053
aI1
aI1
aI47
aI146
aI1
aI231
aI2054
aI2055
aI383
aI56
aI10
aI1
aI2056
aI1
aI10
aI34
aI15
aI5
aI53
aI300
aI2057
aI10
aI1
aI1
aI52
aI1
aI32
aI227
aI265
aI30
aI81
aI60
aI732
aI23
aI2058
aI0
aI45
aI1
aI1
aI640
aI0
aI1
aI1207
aI0
aI82
aI2059
aI0
aI45
aI2060
aI1
aI1
aI2061
aI2062
aI5
aI5
aI2063
aI1
aI294
aI22
aI208
aI261
aI1
aI1
aI300
aI1
aI5
aI0
aI2064
aI2065
aI1
aI2066
aI2067
aI30
aI2068
aI2
aI55
aI1
aI10
aI5
aI28
aI1
aI265
aI5
aI1
aI296
aI177
aI47
aI77
aI10
aI2069
aI53
aI80
aI1108
aI1
aI2070
aI56
aI1
aI10
aI139
aI259
aI1283
aI1
aI1
aI182
aI1
aI1083
aI47
aI1035
aI2071
aI120
aI1233
aI2072
aI10
aI1
aI1
aI53
aI2073
aI2074
aI1
aI2075
aI479
aI2076
aI5
aI1
aI1
aI45
aI2077
aI0
aI0
aI1048
aI5
aI163
aI1
aI10
aI1
aI10
aI10
aI1
aI137
aI1228
aI0
aI0
aI107
aI22
aI1
aI1
aI265
aI1
aI30
aI212
aI1
aI265
aI45
aI417
aI1501
aI64
aI5
aI2078
aI2079
aI2080
aI1
aI1062
aI1
aI1
aI0
aI141
aI1
aI135
a.