ccopy_reg
_reconstructor
p0
(c__main__
FormalContext
p1
c__builtin__
object
p2
Ntp3
Rp4
(dp5
S'oa_value'
p6
(dp7
I0
(lp8
I4
aI11
aI16
asI1
(lp9
I9
aI12
aI15
aI19
asI2
(lp10
I6
aI13
aI19
asI3
(lp11
I0
aI9
aI10
aI15
asI4
(lp12
I3
aI13
aI18
asI5
(lp13
I2
aI8
aI16
aI18
asI6
(lp14
I3
aI5
aI12
aI17
asI7
(lp15
I0
aI1
aI6
aI14
asI8
(lp16
I0
aI7
aI17
aI19
asI9
(lp17
I4
aI7
aI13
aI19
asI10
(lp18
I0
aI2
aI14
aI17
asI11
(lp19
I10
aI14
aI16
aI18
asI12
(lp20
I4
aI12
aI17
aI18
asI13
(lp21
I3
aI11
aI16
aI17
asI14
(lp22
I8
aI11
aI12
aI16
asI15
(lp23
I4
aI5
aI17
asI16
(lp24
I3
aI4
asI17
(lp25
I5
aI8
aI16
aI18
asI18
(lp26
I1
aI6
aI9
asI19
(lp27
I2
aI9
aI10
aI14
asI20
(lp28
I0
aI3
aI10
aI17
asI21
(lp29
I4
aI8
aI13
aI17
asI22
(lp30
I4
aI8
aI11
asI23
(lp31
I2
aI10
aI13
aI17
asI24
(lp32
I2
aI9
aI10
aI19
asI25
(lp33
I1
aI2
aI9
aI16
asI26
(lp34
I0
aI5
aI9
aI12
asI27
(lp35
I7
aI10
aI13
aI16
asI28
(lp36
I4
aI8
aI12
aI13
asI29
(lp37
I5
aI17
asI30
(lp38
I4
aI7
aI13
asI31
(lp39
I4
aI7
aI11
asI32
(lp40
I5
aI7
aI12
asI33
(lp41
I8
aI10
aI16
aI18
asI34
(lp42
I0
aI7
aI9
aI17
asI35
(lp43
I8
aI9
aI10
aI15
asI36
(lp44
I0
aI8
aI14
aI18
asI37
(lp45
I0
aI1
aI6
aI9
asI38
(lp46
I5
aI6
aI15
aI19
asI39
(lp47
I0
aI10
aI17
aI18
asI40
(lp48
I0
aI10
aI13
asI41
(lp49
I1
aI16
asI42
(lp50
I3
aI4
aI7
aI8
asI43
(lp51
I1
aI6
aI7
asI44
(lp52
I0
aI14
aI17
asI45
(lp53
I9
aI10
aI14
aI18
asI46
(lp54
I11
aI16
aI17
aI19
asI47
(lp55
I0
aI1
aI2
aI18
asI48
(lp56
I7
aI8
aI14
aI18
asI49
(lp57
I3
aI4
aI14
aI19
asI50
(lp58
I4
aI6
aI9
aI10
asI51
(lp59
I11
aI12
aI14
aI18
asI52
(lp60
I8
aI9
aI12
aI16
asI53
(lp61
I0
aI14
aI15
aI19
asI54
(lp62
I4
aI10
aI14
aI17
asI55
(lp63
I6
aI17
aI18
aI19
asI56
(lp64
I2
aI7
aI8
aI12
asI57
(lp65
I0
aI5
aI16
aI18
asI58
(lp66
I1
aI11
aI16
asI59
(lp67
I5
aI7
aI14
aI18
asI60
(lp68
I2
aI14
aI18
asI61
(lp69
I0
aI8
aI9
aI11
asI62
(lp70
I1
aI5
aI10
aI14
asI63
(lp71
I4
aI11
aI16
aI17
asI64
(lp72
I0
aI4
aI9
aI10
asI65
(lp73
I10
aI14
aI17
aI18
asI66
(lp74
I0
aI9
aI15
aI18
asI67
(lp75
I12
aI17
aI18
asI68
(lp76
I4
aI5
aI11
aI12
asI69
(lp77
I4
aI10
aI11
aI13
asI70
(lp78
I6
aI9
aI16
asI71
(lp79
I1
aI3
aI5
aI15
asI72
(lp80
I9
aI10
aI12
aI18
asI73
(lp81
I5
aI10
aI11
aI18
asI74
(lp82
I8
aI13
aI17
aI19
asI75
(lp83
I8
aI18
aI19
asI76
(lp84
I1
aI11
aI12
aI17
asI77
(lp85
I0
aI8
aI12
aI16
asI78
(lp86
I0
aI13
asI79
(lp87
I1
aI6
aI7
aI17
asI80
(lp88
I0
aI3
aI4
aI8
asI81
(lp89
I0
aI1
aI3
aI11
asI82
(lp90
I2
aI5
aI7
aI13
asI83
(lp91
I0
aI8
aI11
asI84
(lp92
I14
aI17
asI85
(lp93
I0
aI13
aI15
asI86
(lp94
I0
aI4
aI8
aI9
asI87
(lp95
I2
aI10
aI17
asI88
(lp96
I2
aI6
aI17
aI18
asI89
(lp97
I1
aI11
aI13
aI14
asI90
(lp98
I8
aI14
aI15
aI17
asI91
(lp99
I0
aI3
aI10
aI19
asI92
(lp100
I1
aI3
aI4
aI10
asI93
(lp101
I10
aI12
aI19
asI94
(lp102
I1
aI11
aI14
aI16
asI95
(lp103
I3
aI6
aI9
aI10
asI96
(lp104
I2
aI4
aI6
aI19
asI97
(lp105
I5
aI7
aI12
aI14
asI98
(lp106
I5
aI10
aI17
aI18
asI99
(lp107
I3
aI6
aI16
aI17
asI100
(lp108
I4
aI10
aI11
aI14
asI101
(lp109
I2
aI3
aI9
aI13
asI102
(lp110
I0
aI2
aI4
aI12
asI103
(lp111
I5
aI11
asI104
(lp112
I6
aI12
aI13
aI15
asI105
(lp113
I3
aI16
asI106
(lp114
I3
aI4
aI7
aI12
asI107
(lp115
I3
aI4
aI5
aI13
asI108
(lp116
I0
aI9
aI12
aI18
asI109
(lp117
I10
aI14
aI16
asI110
(lp118
I3
aI7
aI14
aI16
asI111
(lp119
I0
aI2
aI7
aI12
asI112
(lp120
I1
aI9
aI10
aI15
asI113
(lp121
I2
aI5
aI16
asI114
(lp122
I0
aI2
aI11
aI15
asI115
(lp123
I2
aI4
aI10
aI19
asI116
(lp124
I2
aI7
aI14
aI18
asI117
(lp125
I0
aI2
aI10
aI18
asI118
(lp126
I2
aI12
aI13
aI19
asI119
(lp127
I10
aI12
aI16
asI120
(lp128
I0
aI3
aI19
asI121
(lp129
I3
aI5
aI14
aI17
asI122
(lp130
I0
aI1
aI5
aI14
asI123
(lp131
I5
aI12
aI17
asI124
(lp132
I1
aI3
aI5
aI10
asI125
(lp133
I6
aI8
aI9
asI126
(lp134
I4
aI5
aI8
aI19
asI127
(lp135
I1
aI4
aI7
aI15
asI128
(lp136
I0
aI5
aI12
aI18
asI129
(lp137
I1
aI5
aI11
aI18
asI130
(lp138
I2
aI6
aI12
aI19
asI131
(lp139
I1
aI8
aI9
aI15
asI132
(lp140
I1
aI8
aI12
aI16
asI133
(lp141
I2
aI17
aI18
asI134
(lp142
I8
aI12
aI15
aI17
asI135
(lp143
I0
aI2
aI13
aI19
asI136
(lp144
I3
aI10
aI11
aI12
asI137
(lp145
I5
aI6
aI11
aI15
asI138
(lp146
I7
aI9
aI18
aI19
asI139
(lp147
I6
aI7
aI9
aI10
asI140
(lp148
I6
aI9
aI10
aI19
asI141
(lp149
I2
aI6
aI12
aI15
asI142
(lp150
I4
aI10
aI11
aI15
asI143
(lp151
I9
aI10
aI14
aI18
asI144
(lp152
I1
aI4
aI8
asI145
(lp153
I6
aI9
aI10
aI12
asI146
(lp154
I0
aI3
aI12
asI147
(lp155
I11
aI13
asI148
(lp156
I5
aI13
aI16
asI149
(lp157
I5
aI10
aI15
aI16
asI150
(lp158
I10
aI11
aI17
aI19
asI151
(lp159
I3
aI6
aI7
aI13
asI152
(lp160
I1
aI9
aI12
aI19
asI153
(lp161
I3
aI6
aI16
aI18
asI154
(lp162
I7
aI11
aI15
asI155
(lp163
I1
aI4
aI10
aI11
asI156
(lp164
I2
aI9
aI14
aI19
asI157
(lp165
I4
aI7
aI10
aI14
asI158
(lp166
I0
aI7
aI18
asI159
(lp167
I1
aI5
aI12
aI17
asI160
(lp168
I1
aI2
aI5
aI7
asI161
(lp169
I1
aI5
aI11
asI162
(lp170
I10
aI12
aI13
aI16
asI163
(lp171
I9
aI11
aI14
aI18
asI164
(lp172
I9
aI11
aI15
aI19
asI165
(lp173
I8
aI9
aI11
aI15
asI166
(lp174
I1
aI5
aI10
aI18
asI167
(lp175
I0
aI7
aI15
aI17
asI168
(lp176
I3
aI8
aI14
aI17
asI169
(lp177
I2
aI9
aI16
aI17
asI170
(lp178
I5
aI8
aI10
aI18
asI171
(lp179
I0
aI10
aI15
aI19
asI172
(lp180
I6
aI7
aI12
aI19
asI173
(lp181
I5
aI6
aI10
aI18
asI174
(lp182
I6
aI12
aI16
aI18
asI175
(lp183
I5
aI7
aI8
aI15
asI176
(lp184
I3
aI13
aI16
asI177
(lp185
I5
aI7
aI16
aI19
asI178
(lp186
I8
aI11
aI16
aI17
asI179
(lp187
I0
aI8
aI9
aI11
asI180
(lp188
I1
aI2
aI13
aI19
asI181
(lp189
I11
aI13
aI18
aI19
asI182
(lp190
I3
aI7
aI9
aI11
asI183
(lp191
I1
aI13
aI14
aI16
asI184
(lp192
I0
aI15
aI16
asI185
(lp193
I3
aI6
aI12
asI186
(lp194
I6
aI16
aI17
asI187
(lp195
I5
aI6
aI11
aI18
asI188
(lp196
I1
aI7
aI17
aI18
asI189
(lp197
I2
aI3
aI11
aI13
asI190
(lp198
I0
aI5
aI6
aI8
asI191
(lp199
I5
aI9
aI13
asI192
(lp200
I0
aI14
aI15
aI16
asI193
(lp201
I3
aI11
aI12
aI19
asI194
(lp202
I3
aI9
aI10
aI13
asI195
(lp203
I4
aI5
aI14
asI196
(lp204
I1
aI9
aI12
asI197
(lp205
I4
aI6
aI11
aI17
asI198
(lp206
I2
aI4
aI10
asI199
(lp207
I4
aI8
aI10
aI11
asI200
(lp208
I0
aI11
aI13
aI14
asI201
(lp209
I2
aI7
aI11
aI16
asI202
(lp210
I4
aI11
aI12
aI14
asI203
(lp211
I4
aI12
aI16
asI204
(lp212
I2
aI4
aI8
aI11
asI205
(lp213
I0
aI9
aI12
aI14
asI206
(lp214
I4
aI6
aI10
aI12
asI207
(lp215
I6
aI10
aI16
aI18
asI208
(lp216
I10
aI11
aI19
asI209
(lp217
I10
aI14
aI17
aI19
asI210
(lp218
I1
aI6
aI7
aI18
asI211
(lp219
I5
aI10
aI13
aI14
asI212
(lp220
I8
aI15
aI18
asI213
(lp221
I0
aI8
aI9
aI12
asI214
(lp222
I2
aI6
aI13
asI215
(lp223
I5
aI14
aI18
aI19
asI216
(lp224
I4
aI10
aI12
aI15
asI217
(lp225
I0
aI3
aI6
aI17
asI218
(lp226
I9
aI10
aI17
aI18
asI219
(lp227
I1
aI2
aI19
asI220
(lp228
I2
aI7
aI9
aI17
asI221
(lp229
I2
aI10
aI17
asI222
(lp230
I7
aI10
aI15
asI223
(lp231
I7
aI10
aI11
aI19
asI224
(lp232
I3
aI4
aI9
aI16
asI225
(lp233
I11
aI14
aI15
asI226
(lp234
I7
aI18
aI19
asI227
(lp235
I17
aI18
asI228
(lp236
I9
aI15
aI17
aI18
asI229
(lp237
I3
aI4
aI16
aI19
asI230
(lp238
I11
aI12
aI17
asI231
(lp239
I2
aI9
aI17
aI18
asI232
(lp240
I5
aI6
aI17
aI19
asI233
(lp241
I11
aI17
aI18
asI234
(lp242
I6
aI9
aI14
asI235
(lp243
I0
aI6
aI9
asI236
(lp244
I5
aI10
aI19
asI237
(lp245
I2
aI9
aI19
asI238
(lp246
I9
aI13
aI16
aI17
asI239
(lp247
I12
aI15
aI18
aI19
asI240
(lp248
I2
aI5
aI15
aI18
asI241
(lp249
I2
aI9
aI16
asI242
(lp250
I5
aI6
aI11
aI18
asI243
(lp251
I2
aI4
aI10
aI11
asI244
(lp252
I5
aI14
asI245
(lp253
I0
aI4
aI8
aI10
asI246
(lp254
I6
aI9
aI14
aI16
asI247
(lp255
I4
aI8
aI12
aI18
asI248
(lp256
I1
aI11
aI15
aI19
asI249
(lp257
I5
aI7
aI12
asI250
(lp258
I0
aI2
aI13
aI16
asI251
(lp259
I5
aI9
aI16
asI252
(lp260
I3
aI4
aI13
aI15
asI253
(lp261
I8
aI11
aI14
aI17
asI254
(lp262
I4
aI11
aI14
aI15
asI255
(lp263
I0
aI5
aI6
aI19
asI256
(lp264
I4
aI5
aI9
aI13
asI257
(lp265
I0
aI12
aI15
asI258
(lp266
I11
aI14
aI15
aI19
asI259
(lp267
I1
aI5
aI7
aI17
asI260
(lp268
I4
aI9
aI16
aI19
asI261
(lp269
I2
aI3
aI6
aI11
asI262
(lp270
I4
aI7
aI17
aI18
asI263
(lp271
I1
aI3
aI4
aI8
asI264
(lp272
I3
aI10
aI13
aI18
asI265
(lp273
I4
aI5
aI10
aI11
asI266
(lp274
I6
aI7
aI11
aI15
asI267
(lp275
I2
aI6
aI10
aI16
asI268
(lp276
I1
aI15
aI18
asI269
(lp277
I10
aI14
aI15
aI16
asI270
(lp278
I8
aI9
aI14
asI271
(lp279
I4
aI12
aI14
aI15
asI272
(lp280
I6
aI8
aI14
aI18
asI273
(lp281
I0
aI5
aI18
aI19
asI274
(lp282
I1
aI2
aI8
aI12
asI275
(lp283
I3
aI5
aI13
aI14
asI276
(lp284
I2
aI5
aI9
aI10
asI277
(lp285
I4
aI6
aI12
aI19
asI278
(lp286
I1
aI2
aI17
asI279
(lp287
I3
aI9
aI10
aI12
asI280
(lp288
I4
aI8
aI9
aI14
asI281
(lp289
I5
aI6
aI19
asI282
(lp290
I1
aI9
aI11
aI19
asI283
(lp291
I4
aI12
aI15
asI284
(lp292
I9
aI11
aI15
aI18
asI285
(lp293
I2
aI17
aI18
aI19
asI286
(lp294
I2
aI11
aI15
aI19
asI287
(lp295
I4
aI7
aI14
aI15
asI288
(lp296
I0
aI11
aI12
aI19
asI289
(lp297
I7
aI11
aI13
aI17
asI290
(lp298
I8
aI10
aI16
aI17
asI291
(lp299
I4
aI7
aI9
aI16
asI292
(lp300
I2
aI18
aI19
asI293
(lp301
I10
aI17
aI18
aI19
asI294
(lp302
I6
aI12
aI13
aI16
asI295
(lp303
I0
aI1
aI6
aI8
asI296
(lp304
I10
aI15
aI16
aI19
asI297
(lp305
I0
aI8
aI11
aI14
asI298
(lp306
I2
aI13
aI15
aI16
asI299
(lp307
I7
aI8
aI11
asI300
(lp308
I13
aI17
aI18
aI19
asI301
(lp309
I1
aI6
aI12
aI16
asI302
(lp310
I10
aI13
aI18
asI303
(lp311
I0
aI1
aI7
aI14
asI304
(lp312
I4
aI6
aI7
aI18
asI305
(lp313
I4
aI8
aI10
aI14
asI306
(lp314
I5
aI8
aI9
aI18
asI307
(lp315
I9
aI11
aI15
aI16
asI308
(lp316
I4
aI5
aI15
aI18
asI309
(lp317
I3
aI16
aI17
asI310
(lp318
I0
aI1
aI3
aI6
asI311
(lp319
I6
aI14
aI15
aI16
asI312
(lp320
I1
aI2
aI8
asI313
(lp321
I13
aI14
aI16
aI19
asI314
(lp322
I6
aI8
aI14
aI16
asI315
(lp323
I1
aI10
aI12
aI16
asI316
(lp324
I0
aI6
aI8
aI19
asI317
(lp325
I3
aI4
aI15
aI16
asI318
(lp326
I2
aI5
aI18
aI19
asI319
(lp327
I1
aI8
aI16
asI320
(lp328
I1
aI7
aI9
aI13
asI321
(lp329
I4
aI15
aI19
asI322
(lp330
I1
aI2
aI9
aI18
asI323
(lp331
I0
aI10
aI18
aI19
asI324
(lp332
I1
aI11
aI13
aI15
asI325
(lp333
I4
aI7
aI16
aI18
asI326
(lp334
I2
aI3
aI5
aI18
asI327
(lp335
I1
aI3
aI8
aI10
asI328
(lp336
I4
aI5
aI11
aI18
asI329
(lp337
I0
aI2
aI11
aI13
asI330
(lp338
I9
aI12
aI14
aI16
asI331
(lp339
I5
aI13
aI17
aI18
asI332
(lp340
I7
aI11
aI16
aI19
asI333
(lp341
I10
aI12
aI13
aI17
asI334
(lp342
I7
aI8
aI17
aI19
asI335
(lp343
I0
aI1
aI7
aI15
asI336
(lp344
I6
aI8
aI10
aI14
asI337
(lp345
I13
aI14
aI16
aI19
asI338
(lp346
I0
aI10
aI12
aI13
asI339
(lp347
I4
aI8
aI11
aI18
asI340
(lp348
I0
aI5
aI14
aI18
asI341
(lp349
I1
aI4
aI13
asI342
(lp350
I1
aI3
aI7
aI18
asI343
(lp351
I1
aI16
aI17
aI18
asI344
(lp352
I4
aI7
aI10
aI11
asI345
(lp353
I6
aI7
aI10
asI346
(lp354
I0
aI1
aI7
aI19
asI347
(lp355
I0
aI4
aI8
aI9
asI348
(lp356
I10
aI11
aI13
asI349
(lp357
I1
aI12
aI14
asI350
(lp358
I0
aI2
aI7
aI9
asI351
(lp359
I7
aI11
aI13
aI19
asI352
(lp360
I4
aI12
aI14
aI15
asI353
(lp361
I2
aI7
aI10
aI14
asI354
(lp362
I2
aI5
aI9
aI10
asI355
(lp363
I5
aI13
aI17
asI356
(lp364
I2
aI3
aI13
aI17
asI357
(lp365
I2
aI9
aI18
aI19
asI358
(lp366
I3
aI6
aI19
asI359
(lp367
I1
aI15
aI17
aI19
asI360
(lp368
I0
aI5
aI7
aI18
asI361
(lp369
I2
aI6
aI12
aI18
asI362
(lp370
I1
aI10
aI11
aI19
asI363
(lp371
I1
aI2
aI12
aI16
asI364
(lp372
I4
aI9
aI11
aI14
asI365
(lp373
I0
aI14
aI17
asI366
(lp374
I1
aI6
aI11
aI14
asI367
(lp375
I1
aI5
aI8
aI11
asI368
(lp376
I2
aI8
aI16
aI18
asI369
(lp377
I14
aI18
aI19
asI370
(lp378
I8
aI12
aI16
aI18
asI371
(lp379
I4
aI8
aI9
aI13
asI372
(lp380
I0
aI3
aI4
aI18
asI373
(lp381
I1
aI5
aI9
aI14
asI374
(lp382
I10
aI12
aI14
aI16
asI375
(lp383
I0
aI11
aI13
aI19
asI376
(lp384
I0
aI13
aI15
aI17
asI377
(lp385
I2
aI3
aI4
aI5
asI378
(lp386
I3
aI4
aI7
aI14
asI379
(lp387
I0
aI9
aI10
aI14
asI380
(lp388
I5
aI11
aI12
aI19
asI381
(lp389
I1
aI5
aI8
aI16
asI382
(lp390
I2
aI7
aI18
aI19
asI383
(lp391
I1
aI5
aI7
asI384
(lp392
I12
aI13
aI17
asI385
(lp393
I6
aI9
aI14
aI15
asI386
(lp394
I10
aI13
aI14
aI19
asI387
(lp395
I1
aI3
aI5
aI16
asI388
(lp396
I2
aI4
aI8
aI12
asI389
(lp397
I1
aI6
aI8
aI18
asI390
(lp398
I2
aI5
aI12
aI14
asI391
(lp399
I1
aI2
aI10
aI18
asI392
(lp400
I9
aI10
aI16
aI19
asI393
(lp401
I4
aI6
aI12
aI13
asI394
(lp402
I4
aI7
aI14
asI395
(lp403
I0
aI6
aI14
asI396
(lp404
I6
aI12
aI18
asI397
(lp405
I2
aI3
aI5
aI12
asI398
(lp406
I7
aI8
aI16
asI399
(lp407
I6
aI7
aI16
asI400
(lp408
I11
aI12
aI13
aI17
asI401
(lp409
I1
aI4
aI12
asI402
(lp410
I4
aI8
aI9
aI15
asI403
(lp411
I10
aI15
aI16
asI404
(lp412
I3
aI13
aI18
aI19
asI405
(lp413
I3
aI6
aI12
aI17
asI406
(lp414
I0
aI5
aI18
aI19
asI407
(lp415
I7
aI9
aI15
aI17
asI408
(lp416
I2
aI19
asI409
(lp417
I2
aI16
aI18
aI19
asI410
(lp418
I4
aI7
aI14
aI15
asI411
(lp419
I0
aI2
aI8
aI17
asI412
(lp420
I3
aI6
aI8
aI18
asI413
(lp421
I1
aI2
aI3
aI17
asI414
(lp422
I0
aI4
aI14
asI415
(lp423
I3
aI4
aI12
aI19
asI416
(lp424
I0
aI4
aI5
aI19
asI417
(lp425
I1
aI3
aI5
aI6
asI418
(lp426
I0
aI10
aI16
aI18
asI419
(lp427
I3
aI9
aI12
aI15
asI420
(lp428
I0
aI1
aI7
aI12
asI421
(lp429
I2
aI7
aI11
asI422
(lp430
I1
aI8
aI11
aI19
asI423
(lp431
I4
aI5
aI12
aI16
asI424
(lp432
I9
aI13
aI16
aI19
asI425
(lp433
I6
aI9
aI13
aI18
asI426
(lp434
I1
aI6
aI19
asI427
(lp435
I5
aI9
aI10
aI14
asI428
(lp436
I0
aI10
aI15
asI429
(lp437
I5
aI6
aI10
aI18
asI430
(lp438
I1
aI7
aI18
asI431
(lp439
I0
aI4
aI8
aI16
asI432
(lp440
I5
aI8
aI11
aI13
asI433
(lp441
I1
aI8
aI9
aI17
asI434
(lp442
I1
aI5
aI15
aI17
asI435
(lp443
I3
aI5
aI12
aI16
asI436
(lp444
I2
aI3
aI13
aI16
asI437
(lp445
I2
aI8
aI12
asI438
(lp446
I5
aI9
aI13
asI439
(lp447
I0
aI12
aI13
asI440
(lp448
I0
aI5
aI12
asI441
(lp449
I0
aI4
aI7
aI12
asI442
(lp450
I0
aI1
aI2
aI8
asI443
(lp451
I1
aI4
aI6
aI10
asI444
(lp452
I0
aI6
aI11
aI13
asI445
(lp453
I0
aI3
aI4
aI6
asI446
(lp454
I10
aI11
aI16
asI447
(lp455
I2
aI3
aI12
aI14
asI448
(lp456
I0
aI1
aI11
aI15
asI449
(lp457
I0
aI9
aI10
aI15
asI450
(lp458
I11
aI14
aI17
asI451
(lp459
I5
aI10
aI14
asI452
(lp460
I7
aI10
aI16
aI17
asI453
(lp461
I1
aI12
asI454
(lp462
I10
aI12
aI14
asI455
(lp463
I0
aI5
aI13
aI19
asI456
(lp464
I9
aI10
aI18
aI19
asI457
(lp465
I5
aI9
aI12
aI14
asI458
(lp466
I1
aI13
aI15
asI459
(lp467
I0
aI1
aI9
asI460
(lp468
I10
aI11
aI17
aI19
asI461
(lp469
I2
aI7
aI8
aI10
asI462
(lp470
I0
aI7
aI16
asI463
(lp471
I2
aI3
aI7
aI18
asI464
(lp472
I1
aI13
aI17
aI18
asI465
(lp473
I7
aI12
aI15
asI466
(lp474
I3
aI5
aI9
aI15
asI467
(lp475
I6
aI15
aI16
aI19
asI468
(lp476
I4
aI8
aI11
aI14
asI469
(lp477
I0
aI11
aI19
asI470
(lp478
I4
aI5
aI15
aI18
asI471
(lp479
I0
aI3
aI6
aI12
asI472
(lp480
I6
aI7
aI19
asI473
(lp481
I1
aI6
aI10
aI18
asI474
(lp482
I1
aI8
aI14
aI17
asI475
(lp483
I3
aI4
aI13
aI15
asI476
(lp484
I3
aI9
aI12
aI19
asI477
(lp485
I2
aI3
aI13
aI14
asI478
(lp486
I4
aI7
aI8
aI9
asI479
(lp487
I1
aI7
aI10
aI18
asI480
(lp488
I3
aI7
aI12
aI18
asI481
(lp489
I3
aI5
aI6
aI7
asI482
(lp490
I1
aI6
aI12
asI483
(lp491
I5
aI12
aI13
aI16
asI484
(lp492
I5
aI6
aI15
aI18
asI485
(lp493
I2
aI6
aI14
aI17
asI486
(lp494
I6
aI8
aI11
aI15
asI487
(lp495
I11
aI13
aI19
asI488
(lp496
I11
aI13
aI15
aI16
asI489
(lp497
I3
aI8
aI12
aI16
asI490
(lp498
I5
aI6
aI11
aI18
asI491
(lp499
I4
aI7
aI13
aI16
asI492
(lp500
I6
aI11
aI18
aI19
asI493
(lp501
I14
aI15
aI19
asI494
(lp502
I0
aI5
aI7
aI16
asI495
(lp503
I2
aI5
aI8
aI19
asI496
(lp504
I3
aI4
aI10
aI15
asI497
(lp505
I8
aI11
aI18
asI498
(lp506
I2
aI13
aI15
asI499
(lp507
I1
aI3
aI4
aI17
asI500
(lp508
I8
aI10
aI13
aI14
asI501
(lp509
I14
aI19
asI502
(lp510
I0
aI12
aI18
asI503
(lp511
I1
aI2
aI13
aI17
asI504
(lp512
I1
aI5
aI13
asI505
(lp513
I1
aI6
aI11
aI14
asI506
(lp514
I1
aI4
aI8
aI11
asI507
(lp515
I8
aI11
aI16
aI17
asI508
(lp516
I0
aI6
aI8
aI12
asI509
(lp517
I1
aI11
aI13
aI19
asI510
(lp518
I3
aI5
aI8
aI16
asI511
(lp519
I0
aI3
aI8
aI12
asI512
(lp520
I10
aI12
aI14
aI17
asI513
(lp521
I0
aI4
aI9
aI10
asI514
(lp522
I8
aI9
aI10
aI18
asI515
(lp523
I6
aI10
aI19
asI516
(lp524
I8
aI9
aI12
aI16
asI517
(lp525
I7
aI9
aI10
aI15
asI518
(lp526
I9
aI14
aI16
asI519
(lp527
I7
aI9
aI10
aI18
asI520
(lp528
I1
aI3
aI7
aI8
asI521
(lp529
I11
aI12
aI15
asI522
(lp530
I3
aI18
aI19
asI523
(lp531
I2
aI4
aI9
aI19
asI524
(lp532
I15
aI17
aI18
asI525
(lp533
I2
aI8
aI14
aI15
asI526
(lp534
I10
aI17
asI527
(lp535
I2
aI10
aI13
asI528
(lp536
I3
aI8
aI12
aI16
asI529
(lp537
I0
aI8
aI14
asI530
(lp538
I4
aI6
aI12
asI531
(lp539
I0
aI13
aI15
aI16
asI532
(lp540
I5
aI13
aI18
asI533
(lp541
I2
aI8
aI16
aI18
asI534
(lp542
I4
aI8
aI10
aI17
asI535
(lp543
I1
aI3
aI13
aI18
asI536
(lp544
I9
aI10
aI17
aI18
asI537
(lp545
I5
aI12
aI14
aI16
asI538
(lp546
I3
aI4
aI8
aI10
asI539
(lp547
I1
aI8
aI9
aI15
asI540
(lp548
I10
aI12
aI17
aI19
asI541
(lp549
I0
aI4
aI12
aI16
asI542
(lp550
I3
aI5
aI15
aI18
asI543
(lp551
I0
aI3
aI8
aI15
asI544
(lp552
I4
aI5
aI6
aI17
asI545
(lp553
I2
aI12
aI15
aI18
asI546
(lp554
I5
aI9
aI12
aI17
asI547
(lp555
I9
aI10
aI14
asI548
(lp556
I4
aI11
aI16
aI18
asI549
(lp557
I9
aI13
aI19
asI550
(lp558
I5
aI8
aI17
aI18
asI551
(lp559
I4
aI16
aI18
aI19
asI552
(lp560
I2
aI3
aI5
aI15
asI553
(lp561
I2
aI3
aI4
aI8
asI554
(lp562
I5
aI8
aI13
aI18
asI555
(lp563
I8
aI13
aI15
asI556
(lp564
I10
aI11
aI12
aI13
asI557
(lp565
I2
aI7
aI12
aI15
asI558
(lp566
I3
aI12
aI15
aI16
asI559
(lp567
I9
aI12
aI19
asI560
(lp568
I2
aI9
aI11
aI19
asI561
(lp569
I4
aI9
aI11
aI12
asI562
(lp570
I0
aI2
aI8
aI12
asI563
(lp571
I4
aI6
aI12
aI15
asI564
(lp572
I0
aI5
aI8
aI13
asI565
(lp573
I2
aI5
aI8
aI12
asI566
(lp574
I3
aI7
aI9
aI15
asI567
(lp575
I9
aI14
aI15
asI568
(lp576
I7
aI9
aI11
aI18
asI569
(lp577
I6
aI13
aI15
aI16
asI570
(lp578
I1
aI5
aI14
asI571
(lp579
I3
aI10
aI15
aI19
asI572
(lp580
I5
aI13
aI14
aI15
asI573
(lp581
I3
aI6
aI8
aI11
asI574
(lp582
I1
aI4
aI9
aI13
asI575
(lp583
I13
aI14
aI16
asI576
(lp584
I5
aI7
aI10
aI15
asI577
(lp585
I8
aI14
aI15
aI17
asI578
(lp586
I7
aI13
aI14
asI579
(lp587
I3
aI6
aI10
aI14
asI580
(lp588
I3
aI9
aI12
aI18
asI581
(lp589
I1
aI4
aI6
aI14
asI582
(lp590
I4
aI8
aI9
aI10
asI583
(lp591
I1
aI4
aI13
asI584
(lp592
I6
aI9
aI11
aI14
asI585
(lp593
I3
aI10
aI14
aI16
asI586
(lp594
I9
aI11
aI12
aI14
asI587
(lp595
I3
aI4
aI9
aI19
asI588
(lp596
I1
aI11
aI12
asI589
(lp597
I14
aI15
aI19
asI590
(lp598
I5
aI9
aI10
aI17
asI591
(lp599
I2
aI13
aI16
aI17
asI592
(lp600
I11
aI17
aI18
aI19
asI593
(lp601
I4
aI6
aI16
asI594
(lp602
I10
aI11
aI12
asI595
(lp603
I0
aI13
aI19
asI596
(lp604
I4
aI10
aI12
aI18
asI597
(lp605
I3
aI8
aI12
aI13
asI598
(lp606
I2
aI11
aI12
aI17
asI599
(lp607
I2
aI6
aI13
aI14
asI600
(lp608
I0
aI4
aI6
aI12
asI601
(lp609
I0
aI4
aI9
aI10
asI602
(lp610
I7
aI9
aI13
aI15
asI603
(lp611
I9
aI13
aI16
aI17
asI604
(lp612
I4
aI5
aI6
aI14
asI605
(lp613
I3
aI9
aI17
aI19
asI606
(lp614
I4
aI8
aI13
asI607
(lp615
I1
aI2
aI8
aI15
asI608
(lp616
I7
aI12
aI13
aI14
asI609
(lp617
I11
aI14
aI15
aI16
asI610
(lp618
I4
aI18
asI611
(lp619
I0
aI8
aI13
aI14
asI612
(lp620
I8
aI10
aI13
aI17
asI613
(lp621
I0
aI1
aI15
aI16
asI614
(lp622
I1
aI7
aI9
aI11
asI615
(lp623
I0
aI7
aI8
aI11
asI616
(lp624
I3
aI4
aI5
aI18
asI617
(lp625
I2
aI9
aI12
aI18
asI618
(lp626
I5
aI8
aI15
aI18
asI619
(lp627
I2
aI14
asI620
(lp628
I7
aI17
aI18
asI621
(lp629
I5
aI8
aI17
aI19
asI622
(lp630
I3
aI7
aI14
aI19
asI623
(lp631
I0
aI7
aI10
aI18
asI624
(lp632
I0
aI11
aI12
aI19
asI625
(lp633
I2
aI4
aI7
asI626
(lp634
I3
aI7
aI10
aI12
asI627
(lp635
I5
aI14
aI15
aI19
asI628
(lp636
I5
aI9
aI11
aI14
asI629
(lp637
I1
aI14
aI16
aI17
asI630
(lp638
I1
aI6
aI9
aI10
asI631
(lp639
I3
aI13
aI15
aI18
asI632
(lp640
I8
aI13
aI15
aI17
asI633
(lp641
I14
aI16
aI17
asI634
(lp642
I3
aI9
aI11
asI635
(lp643
I12
aI15
aI18
asI636
(lp644
I0
aI15
aI16
asI637
(lp645
I2
aI15
aI17
aI19
asI638
(lp646
I6
aI7
aI10
aI19
asI639
(lp647
I4
aI8
aI14
asI640
(lp648
I5
aI6
aI8
aI10
asI641
(lp649
I1
aI6
aI8
aI12
asI642
(lp650
I1
aI4
aI12
aI19
asI643
(lp651
I0
aI2
aI11
aI18
asI644
(lp652
I12
aI14
asI645
(lp653
I3
aI6
aI7
asI646
(lp654
I0
aI3
aI4
aI8
asI647
(lp655
I4
aI5
aI14
aI17
asI648
(lp656
I2
aI4
aI8
asI649
(lp657
I2
aI6
aI8
aI10
asI650
(lp658
I5
aI7
aI9
aI19
asI651
(lp659
I1
aI16
aI18
aI19
asI652
(lp660
I2
aI12
aI15
asI653
(lp661
I0
aI13
aI14
aI19
asI654
(lp662
I5
aI7
aI11
aI16
asI655
(lp663
I7
aI12
aI17
asI656
(lp664
I2
aI4
aI5
aI17
asI657
(lp665
I3
aI5
aI13
aI15
asI658
(lp666
I2
aI6
aI16
aI19
asI659
(lp667
I2
aI7
aI8
aI16
asI660
(lp668
I8
aI9
aI10
asI661
(lp669
I2
aI3
aI18
aI19
asI662
(lp670
I1
aI2
aI3
aI16
asI663
(lp671
I13
aI17
aI18
aI19
asI664
(lp672
I2
aI9
aI15
aI19
asI665
(lp673
I2
aI8
aI12
aI15
asI666
(lp674
I4
aI6
aI11
aI12
asI667
(lp675
I0
aI1
aI17
aI19
asI668
(lp676
I4
aI11
aI12
aI18
asI669
(lp677
I2
aI3
aI7
aI12
asI670
(lp678
I1
aI6
aI10
aI13
asI671
(lp679
I1
aI9
aI18
aI19
asI672
(lp680
I3
aI9
aI13
asI673
(lp681
I2
aI4
aI11
aI12
asI674
(lp682
I2
aI4
aI15
aI18
asI675
(lp683
I0
aI1
aI7
aI12
asI676
(lp684
I2
aI8
aI13
aI16
asI677
(lp685
I3
aI9
aI13
aI17
asI678
(lp686
I0
aI11
aI14
aI17
asI679
(lp687
I0
aI15
aI16
aI19
asI680
(lp688
I4
aI8
aI14
asI681
(lp689
I1
aI2
aI3
aI16
asI682
(lp690
I7
aI12
aI16
aI19
asI683
(lp691
I6
aI7
aI12
aI19
asI684
(lp692
I0
aI3
aI9
aI13
asI685
(lp693
I8
aI9
aI12
aI13
asI686
(lp694
I6
aI7
aI12
aI15
asI687
(lp695
I6
aI8
aI12
aI14
asI688
(lp696
I1
aI10
aI11
aI19
asI689
(lp697
I0
aI8
aI13
aI18
asI690
(lp698
I10
aI11
aI19
asI691
(lp699
I0
aI5
aI6
aI17
asI692
(lp700
I2
aI7
aI8
aI16
asI693
(lp701
I0
aI3
aI7
aI8
asI694
(lp702
I4
aI10
aI11
aI14
asI695
(lp703
I4
aI10
aI13
aI19
asI696
(lp704
I2
aI6
aI17
aI19
asI697
(lp705
I3
aI12
aI16
aI17
asI698
(lp706
I0
aI9
aI14
asI699
(lp707
I1
aI8
aI16
aI19
asI700
(lp708
I9
aI16
aI18
asI701
(lp709
I9
aI11
aI14
aI19
asI702
(lp710
I8
aI9
aI11
aI18
asI703
(lp711
I5
aI17
aI19
asI704
(lp712
I2
aI3
aI6
aI19
asI705
(lp713
I7
aI16
aI19
asI706
(lp714
I3
aI5
aI13
asI707
(lp715
I7
aI9
aI10
asI708
(lp716
I3
aI5
aI14
aI16
asI709
(lp717
I8
aI12
aI17
asI710
(lp718
I1
aI10
aI17
aI18
asI711
(lp719
I3
aI7
aI18
aI19
asI712
(lp720
I9
aI19
asI713
(lp721
I5
aI8
aI9
aI19
asI714
(lp722
I0
aI7
aI13
aI15
asI715
(lp723
I0
aI6
aI13
aI15
asI716
(lp724
I5
aI7
aI8
aI16
asI717
(lp725
I0
aI6
aI17
aI19
asI718
(lp726
I2
aI8
aI11
aI17
asI719
(lp727
I3
aI8
aI11
aI14
asI720
(lp728
I0
aI1
aI5
aI11
asI721
(lp729
I0
aI1
aI8
aI12
asI722
(lp730
I7
aI8
aI14
aI15
asI723
(lp731
I2
aI4
aI6
aI18
asI724
(lp732
I4
aI5
aI6
aI7
asI725
(lp733
I1
aI5
aI9
aI17
asI726
(lp734
I0
aI1
aI5
aI15
asI727
(lp735
I1
aI7
aI9
aI17
asI728
(lp736
I4
aI11
aI13
aI16
asI729
(lp737
I2
aI13
aI17
aI19
asI730
(lp738
I6
aI7
aI11
aI14
asI731
(lp739
I1
aI4
aI14
asI732
(lp740
I11
aI13
aI15
asI733
(lp741
I0
aI1
aI5
aI8
asI734
(lp742
I9
aI11
aI16
asI735
(lp743
I1
aI3
aI4
aI11
asI736
(lp744
I1
aI6
aI11
aI16
asI737
(lp745
I0
aI3
aI13
asI738
(lp746
I3
aI11
aI14
aI18
asI739
(lp747
I8
aI11
aI16
aI18
asI740
(lp748
I0
aI12
aI13
aI15
asI741
(lp749
I4
aI6
aI8
asI742
(lp750
I8
aI12
aI13
aI17
asI743
(lp751
I1
aI2
aI7
aI8
asI744
(lp752
I7
aI10
aI13
aI17
asI745
(lp753
I4
aI8
aI12
aI17
asI746
(lp754
I8
aI12
aI17
asI747
(lp755
I3
aI12
aI16
aI17
asI748
(lp756
I6
aI10
aI11
aI13
asI749
(lp757
I0
aI6
aI11
aI19
asI750
(lp758
I3
aI9
aI15
aI18
asI751
(lp759
I2
aI4
aI10
aI17
asI752
(lp760
I8
aI14
aI16
asI753
(lp761
I2
aI3
aI8
aI18
asI754
(lp762
I0
aI1
aI12
asI755
(lp763
I0
aI4
aI6
aI19
asI756
(lp764
I5
aI7
aI18
asI757
(lp765
I1
aI8
aI14
asI758
(lp766
I3
aI8
aI18
aI19
asI759
(lp767
I1
aI5
aI17
aI18
asI760
(lp768
I3
aI7
aI8
aI19
asI761
(lp769
I16
aI18
asI762
(lp770
I0
aI3
aI9
aI11
asI763
(lp771
I9
aI11
aI16
asI764
(lp772
I0
aI5
aI9
aI17
asI765
(lp773
I5
aI8
aI15
aI16
asI766
(lp774
I0
aI4
aI17
asI767
(lp775
I8
aI9
aI12
aI17
asI768
(lp776
I3
aI5
aI12
asI769
(lp777
I6
aI11
aI13
aI19
asI770
(lp778
I3
aI4
aI5
aI18
asI771
(lp779
I1
aI6
aI9
asI772
(lp780
I0
aI3
aI14
asI773
(lp781
I6
aI11
aI12
aI15
asI774
(lp782
I8
aI14
aI15
aI18
asI775
(lp783
I4
aI5
aI11
aI14
asI776
(lp784
I10
aI15
aI17
asI777
(lp785
I6
aI7
aI12
asI778
(lp786
I5
aI12
aI14
asI779
(lp787
I3
aI9
aI16
aI17
asI780
(lp788
I12
aI16
aI18
asI781
(lp789
I3
aI8
aI11
aI12
asI782
(lp790
I0
aI12
asI783
(lp791
I6
aI12
aI17
aI18
asI784
(lp792
I4
aI7
aI10
aI14
asI785
(lp793
I5
aI10
aI12
aI17
asI786
(lp794
I3
aI4
aI7
aI11
asI787
(lp795
I4
aI12
aI13
aI18
asI788
(lp796
I2
aI11
aI15
asI789
(lp797
I1
aI11
aI17
aI19
asI790
(lp798
I3
aI11
aI17
asI791
(lp799
I0
aI2
aI10
aI12
asI792
(lp800
I11
aI12
aI13
asI793
(lp801
I6
aI8
aI18
aI19
asI794
(lp802
I4
aI5
aI15
aI19
asI795
(lp803
I3
aI5
aI8
aI12
asI796
(lp804
I1
aI6
aI19
asI797
(lp805
I8
aI9
aI16
aI19
asI798
(lp806
I5
aI13
aI17
asI799
(lp807
I7
aI12
aI18
aI19
asI800
(lp808
I0
aI1
aI14
asI801
(lp809
I6
aI10
aI11
aI15
asI802
(lp810
I0
aI1
aI3
aI16
asI803
(lp811
I4
aI7
aI18
aI19
asI804
(lp812
I0
aI13
aI19
asI805
(lp813
I3
aI4
aI5
aI15
asI806
(lp814
I0
aI10
aI16
aI17
asI807
(lp815
I3
aI5
aI17
asI808
(lp816
I2
aI10
aI11
aI13
asI809
(lp817
I9
aI10
aI17
asI810
(lp818
I1
aI4
aI7
aI8
asI811
(lp819
I3
aI9
aI18
asI812
(lp820
I3
aI5
aI9
aI19
asI813
(lp821
I1
aI4
aI10
aI17
asI814
(lp822
I3
aI8
aI9
aI10
asI815
(lp823
I0
aI2
aI13
aI18
asI816
(lp824
I0
aI5
aI7
aI10
asI817
(lp825
I1
aI4
aI10
aI13
asI818
(lp826
I4
aI12
aI19
asI819
(lp827
I0
aI6
aI15
aI18
asI820
(lp828
I0
aI9
aI16
aI19
asI821
(lp829
I8
aI9
aI12
aI13
asI822
(lp830
I2
aI10
aI11
aI19
asI823
(lp831
I2
aI3
aI6
asI824
(lp832
I6
aI9
aI16
aI18
asI825
(lp833
I6
aI7
aI14
aI18
asI826
(lp834
I2
aI3
aI12
aI14
asI827
(lp835
I0
aI6
aI14
aI19
asI828
(lp836
I0
aI9
aI11
aI19
asI829
(lp837
I0
aI1
aI12
aI16
asI830
(lp838
I3
aI7
aI14
asI831
(lp839
I6
aI8
aI13
aI15
asI832
(lp840
I1
aI10
aI13
asI833
(lp841
I4
aI11
aI12
aI16
asI834
(lp842
I0
aI5
aI11
aI15
asI835
(lp843
I0
aI5
aI10
asI836
(lp844
I1
aI9
aI16
asI837
(lp845
I6
aI8
aI14
aI17
asI838
(lp846
I10
aI11
aI16
aI18
asI839
(lp847
I0
aI8
aI17
aI19
asI840
(lp848
I3
aI4
aI7
aI18
asI841
(lp849
I1
aI5
aI7
aI9
asI842
(lp850
I1
aI4
aI10
aI19
asI843
(lp851
I4
aI8
aI14
aI16
asI844
(lp852
I0
aI1
aI9
aI15
asI845
(lp853
I12
aI13
aI17
asI846
(lp854
I1
aI10
aI14
aI19
asI847
(lp855
I0
aI1
aI2
aI7
asI848
(lp856
I0
aI7
aI12
aI16
asI849
(lp857
I8
aI10
aI17
asI850
(lp858
I4
aI8
aI10
aI12
asI851
(lp859
I0
aI4
aI6
asI852
(lp860
I6
aI10
aI12
aI18
asI853
(lp861
I1
aI5
aI15
aI16
asI854
(lp862
I5
aI8
aI11
aI17
asI855
(lp863
I0
aI9
aI15
asI856
(lp864
I3
aI5
aI7
aI11
asI857
(lp865
I0
aI1
aI8
aI17
asI858
(lp866
I7
aI11
aI14
aI19
asI859
(lp867
I2
aI8
aI12
aI18
asI860
(lp868
I0
aI1
aI2
aI12
asI861
(lp869
I1
aI4
aI14
aI15
asI862
(lp870
I7
aI11
aI16
asI863
(lp871
I4
aI8
aI16
aI19
asI864
(lp872
I0
aI1
aI6
aI7
asI865
(lp873
I0
aI3
aI7
aI16
asI866
(lp874
I5
aI8
aI9
aI19
asI867
(lp875
I2
aI12
aI14
asI868
(lp876
I0
aI2
aI7
aI12
asI869
(lp877
I3
aI6
aI13
asI870
(lp878
I1
aI4
aI5
aI19
asI871
(lp879
I3
aI5
aI10
aI12
asI872
(lp880
I5
aI15
asI873
(lp881
I10
aI14
aI19
asI874
(lp882
I2
aI6
aI11
aI12
asI875
(lp883
I2
aI5
aI16
asI876
(lp884
I9
aI11
aI12
aI17
asI877
(lp885
I0
aI5
aI6
aI13
asI878
(lp886
I5
aI6
aI8
aI17
asI879
(lp887
I6
aI11
aI12
aI15
asI880
(lp888
I5
aI8
aI18
aI19
asI881
(lp889
I2
aI6
aI10
aI19
asI882
(lp890
I7
aI10
aI11
asI883
(lp891
I1
aI7
aI8
asI884
(lp892
I10
aI11
aI18
aI19
asI885
(lp893
I0
aI2
aI11
aI19
asI886
(lp894
I6
aI9
aI10
aI11
asI887
(lp895
I0
aI3
aI5
aI14
asI888
(lp896
I0
aI1
aI6
aI12
asI889
(lp897
I10
aI13
aI15
aI18
asI890
(lp898
I4
aI5
aI15
aI16
asI891
(lp899
I2
aI10
aI11
aI14
asI892
(lp900
I9
aI11
aI14
aI19
asI893
(lp901
I5
aI6
aI10
aI15
asI894
(lp902
I2
aI8
aI14
aI19
asI895
(lp903
I0
aI4
aI10
aI13
asI896
(lp904
I6
aI10
aI11
aI17
asI897
(lp905
I1
aI6
aI15
aI17
asI898
(lp906
I1
aI5
aI18
asI899
(lp907
I5
aI8
aI12
aI15
asI900
(lp908
I0
aI8
aI13
asI901
(lp909
I7
aI16
aI17
aI18
asI902
(lp910
I5
aI8
aI11
asI903
(lp911
I3
aI4
aI10
aI15
asI904
(lp912
I1
aI3
aI9
aI11
asI905
(lp913
I1
aI6
aI9
aI15
asI906
(lp914
I2
aI5
asI907
(lp915
I10
aI14
aI17
asI908
(lp916
I5
aI9
aI12
asI909
(lp917
I3
aI4
aI10
aI15
asI910
(lp918
I2
aI4
aI14
aI16
asI911
(lp919
I1
aI9
aI11
aI16
asI912
(lp920
I9
aI18
aI19
asI913
(lp921
I2
aI10
aI14
asI914
(lp922
I8
aI12
aI15
aI16
asI915
(lp923
I8
aI9
aI19
asI916
(lp924
I1
aI5
aI13
aI18
asI917
(lp925
I1
aI5
aI7
aI14
asI918
(lp926
I5
aI6
aI14
asI919
(lp927
I0
aI3
aI9
aI10
asI920
(lp928
I2
aI3
aI13
aI19
asI921
(lp929
I3
aI8
aI10
aI18
asI922
(lp930
I2
aI8
aI14
aI17
asI923
(lp931
I6
aI7
aI13
aI18
asI924
(lp932
I3
aI7
aI9
aI12
asI925
(lp933
I9
aI14
aI15
asI926
(lp934
I1
aI2
aI6
aI13
asI927
(lp935
I2
aI6
aI10
aI19
asI928
(lp936
I1
aI8
aI10
aI15
asI929
(lp937
I4
aI5
aI12
asI930
(lp938
I5
aI8
aI17
asI931
(lp939
I0
aI17
asI932
(lp940
I2
aI5
aI14
aI19
asI933
(lp941
I2
aI11
aI15
aI19
asI934
(lp942
I0
aI5
aI8
aI13
asI935
(lp943
I2
aI5
aI12
aI17
asI936
(lp944
I0
aI3
aI7
aI17
asI937
(lp945
I1
aI8
aI11
aI17
asI938
(lp946
I5
aI10
aI13
asI939
(lp947
I0
aI6
aI14
aI16
asI940
(lp948
I0
aI5
aI6
aI13
asI941
(lp949
I6
aI10
aI15
aI19
asI942
(lp950
I1
aI8
aI11
aI12
asI943
(lp951
I5
aI6
aI17
aI18
asI944
(lp952
I4
aI7
aI11
aI16
asI945
(lp953
I1
aI6
aI8
aI9
asI946
(lp954
I10
aI13
aI16
aI18
asI947
(lp955
I1
aI8
aI10
aI17
asI948
(lp956
I3
aI9
aI17
asI949
(lp957
I7
aI18
aI19
asI950
(lp958
I4
aI6
aI12
aI16
asI951
(lp959
I2
aI3
aI12
aI14
asI952
(lp960
I2
aI9
aI10
aI17
asI953
(lp961
I5
aI6
aI8
aI16
asI954
(lp962
I6
aI8
aI11
aI16
asI955
(lp963
I0
aI12
aI14
aI17
asI956
(lp964
I12
aI16
aI18
asI957
(lp965
I3
aI10
aI16
asI958
(lp966
I0
aI14
aI15
asI959
(lp967
I7
aI12
aI14
aI19
asI960
(lp968
I7
aI9
aI15
aI17
asI961
(lp969
I6
aI14
aI18
asI962
(lp970
I6
aI7
aI8
aI10
asI963
(lp971
I12
aI13
aI15
asI964
(lp972
I1
aI4
aI8
aI13
asI965
(lp973
I8
aI11
aI16
asI966
(lp974
I3
aI10
aI17
asI967
(lp975
I0
aI9
aI12
aI17
asI968
(lp976
I5
aI6
aI12
aI15
asI969
(lp977
I1
aI7
aI15
asI970
(lp978
I3
aI4
aI12
aI13
asI971
(lp979
I1
aI5
aI16
aI17
asI972
(lp980
I3
aI12
aI14
aI16
asI973
(lp981
I1
aI5
aI10
aI13
asI974
(lp982
I5
aI15
aI16
aI17
asI975
(lp983
I0
aI3
aI12
aI19
asI976
(lp984
I3
aI8
aI11
aI13
asI977
(lp985
I9
aI16
aI18
asI978
(lp986
I9
aI10
aI13
aI14
asI979
(lp987
I7
aI11
aI13
asI980
(lp988
I0
aI3
aI4
aI5
asI981
(lp989
I1
aI6
aI11
aI14
asI982
(lp990
I1
aI5
aI11
aI12
asI983
(lp991
I1
aI5
aI8
aI10
asI984
(lp992
I5
aI9
aI15
aI16
asI985
(lp993
I6
aI9
aI17
aI18
asI986
(lp994
I0
aI13
aI17
asI987
(lp995
I7
aI16
aI18
asI988
(lp996
I14
aI16
aI17
asI989
(lp997
I0
aI4
aI8
aI11
asI990
(lp998
I4
aI6
aI7
aI15
asI991
(lp999
I10
aI11
aI14
aI16
asI992
(lp1000
I3
aI8
aI9
asI993
(lp1001
I0
aI7
aI8
aI15
asI994
(lp1002
I3
aI7
aI10
aI19
asI995
(lp1003
I1
aI3
aI5
aI7
asI996
(lp1004
I14
aI17
asI997
(lp1005
I2
aI8
aI12
aI15
asI998
(lp1006
I0
aI2
aI13
aI17
asI999
(lp1007
I0
aI9
aI19
assS'attribute_num'
p1008
I20
sS'oa_rate'
p1009
F0.20000000000000001
sS'object_list'
p1010
(lp1011
S'o0'
p1012
aS'o1'
p1013
aS'o2'
p1014
aS'o3'
p1015
aS'o4'
p1016
aS'o5'
p1017
aS'o6'
p1018
aS'o7'
p1019
aS'o8'
p1020
aS'o9'
p1021
aS'o10'
p1022
aS'o11'
p1023
aS'o12'
p1024
aS'o13'
p1025
aS'o14'
p1026
aS'o15'
p1027
aS'o16'
p1028
aS'o17'
p1029
aS'o18'
p1030
aS'o19'
p1031
aS'o20'
p1032
aS'o21'
p1033
aS'o22'
p1034
aS'o23'
p1035
aS'o24'
p1036
aS'o25'
p1037
aS'o26'
p1038
aS'o27'
p1039
aS'o28'
p1040
aS'o29'
p1041
aS'o30'
p1042
aS'o31'
p1043
aS'o32'
p1044
aS'o33'
p1045
aS'o34'
p1046
aS'o35'
p1047
aS'o36'
p1048
aS'o37'
p1049
aS'o38'
p1050
aS'o39'
p1051
aS'o40'
p1052
aS'o41'
p1053
aS'o42'
p1054
aS'o43'
p1055
aS'o44'
p1056
aS'o45'
p1057
aS'o46'
p1058
aS'o47'
p1059
aS'o48'
p1060
aS'o49'
p1061
aS'o50'
p1062
aS'o51'
p1063
aS'o52'
p1064
aS'o53'
p1065
aS'o54'
p1066
aS'o55'
p1067
aS'o56'
p1068
aS'o57'
p1069
aS'o58'
p1070
aS'o59'
p1071
aS'o60'
p1072
aS'o61'
p1073
aS'o62'
p1074
aS'o63'
p1075
aS'o64'
p1076
aS'o65'
p1077
aS'o66'
p1078
aS'o67'
p1079
aS'o68'
p1080
aS'o69'
p1081
aS'o70'
p1082
aS'o71'
p1083
aS'o72'
p1084
aS'o73'
p1085
aS'o74'
p1086
aS'o75'
p1087
aS'o76'
p1088
aS'o77'
p1089
aS'o78'
p1090
aS'o79'
p1091
aS'o80'
p1092
aS'o81'
p1093
aS'o82'
p1094
aS'o83'
p1095
aS'o84'
p1096
aS'o85'
p1097
aS'o86'
p1098
aS'o87'
p1099
aS'o88'
p1100
aS'o89'
p1101
aS'o90'
p1102
aS'o91'
p1103
aS'o92'
p1104
aS'o93'
p1105
aS'o94'
p1106
aS'o95'
p1107
aS'o96'
p1108
aS'o97'
p1109
aS'o98'
p1110
aS'o99'
p1111
aS'o100'
p1112
aS'o101'
p1113
aS'o102'
p1114
aS'o103'
p1115
aS'o104'
p1116
aS'o105'
p1117
aS'o106'
p1118
aS'o107'
p1119
aS'o108'
p1120
aS'o109'
p1121
aS'o110'
p1122
aS'o111'
p1123
aS'o112'
p1124
aS'o113'
p1125
aS'o114'
p1126
aS'o115'
p1127
aS'o116'
p1128
aS'o117'
p1129
aS'o118'
p1130
aS'o119'
p1131
aS'o120'
p1132
aS'o121'
p1133
aS'o122'
p1134
aS'o123'
p1135
aS'o124'
p1136
aS'o125'
p1137
aS'o126'
p1138
aS'o127'
p1139
aS'o128'
p1140
aS'o129'
p1141
aS'o130'
p1142
aS'o131'
p1143
aS'o132'
p1144
aS'o133'
p1145
aS'o134'
p1146
aS'o135'
p1147
aS'o136'
p1148
aS'o137'
p1149
aS'o138'
p1150
aS'o139'
p1151
aS'o140'
p1152
aS'o141'
p1153
aS'o142'
p1154
aS'o143'
p1155
aS'o144'
p1156
aS'o145'
p1157
aS'o146'
p1158
aS'o147'
p1159
aS'o148'
p1160
aS'o149'
p1161
aS'o150'
p1162
aS'o151'
p1163
aS'o152'
p1164
aS'o153'
p1165
aS'o154'
p1166
aS'o155'
p1167
aS'o156'
p1168
aS'o157'
p1169
aS'o158'
p1170
aS'o159'
p1171
aS'o160'
p1172
aS'o161'
p1173
aS'o162'
p1174
aS'o163'
p1175
aS'o164'
p1176
aS'o165'
p1177
aS'o166'
p1178
aS'o167'
p1179
aS'o168'
p1180
aS'o169'
p1181
aS'o170'
p1182
aS'o171'
p1183
aS'o172'
p1184
aS'o173'
p1185
aS'o174'
p1186
aS'o175'
p1187
aS'o176'
p1188
aS'o177'
p1189
aS'o178'
p1190
aS'o179'
p1191
aS'o180'
p1192
aS'o181'
p1193
aS'o182'
p1194
aS'o183'
p1195
aS'o184'
p1196
aS'o185'
p1197
aS'o186'
p1198
aS'o187'
p1199
aS'o188'
p1200
aS'o189'
p1201
aS'o190'
p1202
aS'o191'
p1203
aS'o192'
p1204
aS'o193'
p1205
aS'o194'
p1206
aS'o195'
p1207
aS'o196'
p1208
aS'o197'
p1209
aS'o198'
p1210
aS'o199'
p1211
aS'o200'
p1212
aS'o201'
p1213
aS'o202'
p1214
aS'o203'
p1215
aS'o204'
p1216
aS'o205'
p1217
aS'o206'
p1218
aS'o207'
p1219
aS'o208'
p1220
aS'o209'
p1221
aS'o210'
p1222
aS'o211'
p1223
aS'o212'
p1224
aS'o213'
p1225
aS'o214'
p1226
aS'o215'
p1227
aS'o216'
p1228
aS'o217'
p1229
aS'o218'
p1230
aS'o219'
p1231
aS'o220'
p1232
aS'o221'
p1233
aS'o222'
p1234
aS'o223'
p1235
aS'o224'
p1236
aS'o225'
p1237
aS'o226'
p1238
aS'o227'
p1239
aS'o228'
p1240
aS'o229'
p1241
aS'o230'
p1242
aS'o231'
p1243
aS'o232'
p1244
aS'o233'
p1245
aS'o234'
p1246
aS'o235'
p1247
aS'o236'
p1248
aS'o237'
p1249
aS'o238'
p1250
aS'o239'
p1251
aS'o240'
p1252
aS'o241'
p1253
aS'o242'
p1254
aS'o243'
p1255
aS'o244'
p1256
aS'o245'
p1257
aS'o246'
p1258
aS'o247'
p1259
aS'o248'
p1260
aS'o249'
p1261
aS'o250'
p1262
aS'o251'
p1263
aS'o252'
p1264
aS'o253'
p1265
aS'o254'
p1266
aS'o255'
p1267
aS'o256'
p1268
aS'o257'
p1269
aS'o258'
p1270
aS'o259'
p1271
aS'o260'
p1272
aS'o261'
p1273
aS'o262'
p1274
aS'o263'
p1275
aS'o264'
p1276
aS'o265'
p1277
aS'o266'
p1278
aS'o267'
p1279
aS'o268'
p1280
aS'o269'
p1281
aS'o270'
p1282
aS'o271'
p1283
aS'o272'
p1284
aS'o273'
p1285
aS'o274'
p1286
aS'o275'
p1287
aS'o276'
p1288
aS'o277'
p1289
aS'o278'
p1290
aS'o279'
p1291
aS'o280'
p1292
aS'o281'
p1293
aS'o282'
p1294
aS'o283'
p1295
aS'o284'
p1296
aS'o285'
p1297
aS'o286'
p1298
aS'o287'
p1299
aS'o288'
p1300
aS'o289'
p1301
aS'o290'
p1302
aS'o291'
p1303
aS'o292'
p1304
aS'o293'
p1305
aS'o294'
p1306
aS'o295'
p1307
aS'o296'
p1308
aS'o297'
p1309
aS'o298'
p1310
aS'o299'
p1311
aS'o300'
p1312
aS'o301'
p1313
aS'o302'
p1314
aS'o303'
p1315
aS'o304'
p1316
aS'o305'
p1317
aS'o306'
p1318
aS'o307'
p1319
aS'o308'
p1320
aS'o309'
p1321
aS'o310'
p1322
aS'o311'
p1323
aS'o312'
p1324
aS'o313'
p1325
aS'o314'
p1326
aS'o315'
p1327
aS'o316'
p1328
aS'o317'
p1329
aS'o318'
p1330
aS'o319'
p1331
aS'o320'
p1332
aS'o321'
p1333
aS'o322'
p1334
aS'o323'
p1335
aS'o324'
p1336
aS'o325'
p1337
aS'o326'
p1338
aS'o327'
p1339
aS'o328'
p1340
aS'o329'
p1341
aS'o330'
p1342
aS'o331'
p1343
aS'o332'
p1344
aS'o333'
p1345
aS'o334'
p1346
aS'o335'
p1347
aS'o336'
p1348
aS'o337'
p1349
aS'o338'
p1350
aS'o339'
p1351
aS'o340'
p1352
aS'o341'
p1353
aS'o342'
p1354
aS'o343'
p1355
aS'o344'
p1356
aS'o345'
p1357
aS'o346'
p1358
aS'o347'
p1359
aS'o348'
p1360
aS'o349'
p1361
aS'o350'
p1362
aS'o351'
p1363
aS'o352'
p1364
aS'o353'
p1365
aS'o354'
p1366
aS'o355'
p1367
aS'o356'
p1368
aS'o357'
p1369
aS'o358'
p1370
aS'o359'
p1371
aS'o360'
p1372
aS'o361'
p1373
aS'o362'
p1374
aS'o363'
p1375
aS'o364'
p1376
aS'o365'
p1377
aS'o366'
p1378
aS'o367'
p1379
aS'o368'
p1380
aS'o369'
p1381
aS'o370'
p1382
aS'o371'
p1383
aS'o372'
p1384
aS'o373'
p1385
aS'o374'
p1386
aS'o375'
p1387
aS'o376'
p1388
aS'o377'
p1389
aS'o378'
p1390
aS'o379'
p1391
aS'o380'
p1392
aS'o381'
p1393
aS'o382'
p1394
aS'o383'
p1395
aS'o384'
p1396
aS'o385'
p1397
aS'o386'
p1398
aS'o387'
p1399
aS'o388'
p1400
aS'o389'
p1401
aS'o390'
p1402
aS'o391'
p1403
aS'o392'
p1404
aS'o393'
p1405
aS'o394'
p1406
aS'o395'
p1407
aS'o396'
p1408
aS'o397'
p1409
aS'o398'
p1410
aS'o399'
p1411
aS'o400'
p1412
aS'o401'
p1413
aS'o402'
p1414
aS'o403'
p1415
aS'o404'
p1416
aS'o405'
p1417
aS'o406'
p1418
aS'o407'
p1419
aS'o408'
p1420
aS'o409'
p1421
aS'o410'
p1422
aS'o411'
p1423
aS'o412'
p1424
aS'o413'
p1425
aS'o414'
p1426
aS'o415'
p1427
aS'o416'
p1428
aS'o417'
p1429
aS'o418'
p1430
aS'o419'
p1431
aS'o420'
p1432
aS'o421'
p1433
aS'o422'
p1434
aS'o423'
p1435
aS'o424'
p1436
aS'o425'
p1437
aS'o426'
p1438
aS'o427'
p1439
aS'o428'
p1440
aS'o429'
p1441
aS'o430'
p1442
aS'o431'
p1443
aS'o432'
p1444
aS'o433'
p1445
aS'o434'
p1446
aS'o435'
p1447
aS'o436'
p1448
aS'o437'
p1449
aS'o438'
p1450
aS'o439'
p1451
aS'o440'
p1452
aS'o441'
p1453
aS'o442'
p1454
aS'o443'
p1455
aS'o444'
p1456
aS'o445'
p1457
aS'o446'
p1458
aS'o447'
p1459
aS'o448'
p1460
aS'o449'
p1461
aS'o450'
p1462
aS'o451'
p1463
aS'o452'
p1464
aS'o453'
p1465
aS'o454'
p1466
aS'o455'
p1467
aS'o456'
p1468
aS'o457'
p1469
aS'o458'
p1470
aS'o459'
p1471
aS'o460'
p1472
aS'o461'
p1473
aS'o462'
p1474
aS'o463'
p1475
aS'o464'
p1476
aS'o465'
p1477
aS'o466'
p1478
aS'o467'
p1479
aS'o468'
p1480
aS'o469'
p1481
aS'o470'
p1482
aS'o471'
p1483
aS'o472'
p1484
aS'o473'
p1485
aS'o474'
p1486
aS'o475'
p1487
aS'o476'
p1488
aS'o477'
p1489
aS'o478'
p1490
aS'o479'
p1491
aS'o480'
p1492
aS'o481'
p1493
aS'o482'
p1494
aS'o483'
p1495
aS'o484'
p1496
aS'o485'
p1497
aS'o486'
p1498
aS'o487'
p1499
aS'o488'
p1500
aS'o489'
p1501
aS'o490'
p1502
aS'o491'
p1503
aS'o492'
p1504
aS'o493'
p1505
aS'o494'
p1506
aS'o495'
p1507
aS'o496'
p1508
aS'o497'
p1509
aS'o498'
p1510
aS'o499'
p1511
aS'o500'
p1512
aS'o501'
p1513
aS'o502'
p1514
aS'o503'
p1515
aS'o504'
p1516
aS'o505'
p1517
aS'o506'
p1518
aS'o507'
p1519
aS'o508'
p1520
aS'o509'
p1521
aS'o510'
p1522
aS'o511'
p1523
aS'o512'
p1524
aS'o513'
p1525
aS'o514'
p1526
aS'o515'
p1527
aS'o516'
p1528
aS'o517'
p1529
aS'o518'
p1530
aS'o519'
p1531
aS'o520'
p1532
aS'o521'
p1533
aS'o522'
p1534
aS'o523'
p1535
aS'o524'
p1536
aS'o525'
p1537
aS'o526'
p1538
aS'o527'
p1539
aS'o528'
p1540
aS'o529'
p1541
aS'o530'
p1542
aS'o531'
p1543
aS'o532'
p1544
aS'o533'
p1545
aS'o534'
p1546
aS'o535'
p1547
aS'o536'
p1548
aS'o537'
p1549
aS'o538'
p1550
aS'o539'
p1551
aS'o540'
p1552
aS'o541'
p1553
aS'o542'
p1554
aS'o543'
p1555
aS'o544'
p1556
aS'o545'
p1557
aS'o546'
p1558
aS'o547'
p1559
aS'o548'
p1560
aS'o549'
p1561
aS'o550'
p1562
aS'o551'
p1563
aS'o552'
p1564
aS'o553'
p1565
aS'o554'
p1566
aS'o555'
p1567
aS'o556'
p1568
aS'o557'
p1569
aS'o558'
p1570
aS'o559'
p1571
aS'o560'
p1572
aS'o561'
p1573
aS'o562'
p1574
aS'o563'
p1575
aS'o564'
p1576
aS'o565'
p1577
aS'o566'
p1578
aS'o567'
p1579
aS'o568'
p1580
aS'o569'
p1581
aS'o570'
p1582
aS'o571'
p1583
aS'o572'
p1584
aS'o573'
p1585
aS'o574'
p1586
aS'o575'
p1587
aS'o576'
p1588
aS'o577'
p1589
aS'o578'
p1590
aS'o579'
p1591
aS'o580'
p1592
aS'o581'
p1593
aS'o582'
p1594
aS'o583'
p1595
aS'o584'
p1596
aS'o585'
p1597
aS'o586'
p1598
aS'o587'
p1599
aS'o588'
p1600
aS'o589'
p1601
aS'o590'
p1602
aS'o591'
p1603
aS'o592'
p1604
aS'o593'
p1605
aS'o594'
p1606
aS'o595'
p1607
aS'o596'
p1608
aS'o597'
p1609
aS'o598'
p1610
aS'o599'
p1611
aS'o600'
p1612
aS'o601'
p1613
aS'o602'
p1614
aS'o603'
p1615
aS'o604'
p1616
aS'o605'
p1617
aS'o606'
p1618
aS'o607'
p1619
aS'o608'
p1620
aS'o609'
p1621
aS'o610'
p1622
aS'o611'
p1623
aS'o612'
p1624
aS'o613'
p1625
aS'o614'
p1626
aS'o615'
p1627
aS'o616'
p1628
aS'o617'
p1629
aS'o618'
p1630
aS'o619'
p1631
aS'o620'
p1632
aS'o621'
p1633
aS'o622'
p1634
aS'o623'
p1635
aS'o624'
p1636
aS'o625'
p1637
aS'o626'
p1638
aS'o627'
p1639
aS'o628'
p1640
aS'o629'
p1641
aS'o630'
p1642
aS'o631'
p1643
aS'o632'
p1644
aS'o633'
p1645
aS'o634'
p1646
aS'o635'
p1647
aS'o636'
p1648
aS'o637'
p1649
aS'o638'
p1650
aS'o639'
p1651
aS'o640'
p1652
aS'o641'
p1653
aS'o642'
p1654
aS'o643'
p1655
aS'o644'
p1656
aS'o645'
p1657
aS'o646'
p1658
aS'o647'
p1659
aS'o648'
p1660
aS'o649'
p1661
aS'o650'
p1662
aS'o651'
p1663
aS'o652'
p1664
aS'o653'
p1665
aS'o654'
p1666
aS'o655'
p1667
aS'o656'
p1668
aS'o657'
p1669
aS'o658'
p1670
aS'o659'
p1671
aS'o660'
p1672
aS'o661'
p1673
aS'o662'
p1674
aS'o663'
p1675
aS'o664'
p1676
aS'o665'
p1677
aS'o666'
p1678
aS'o667'
p1679
aS'o668'
p1680
aS'o669'
p1681
aS'o670'
p1682
aS'o671'
p1683
aS'o672'
p1684
aS'o673'
p1685
aS'o674'
p1686
aS'o675'
p1687
aS'o676'
p1688
aS'o677'
p1689
aS'o678'
p1690
aS'o679'
p1691
aS'o680'
p1692
aS'o681'
p1693
aS'o682'
p1694
aS'o683'
p1695
aS'o684'
p1696
aS'o685'
p1697
aS'o686'
p1698
aS'o687'
p1699
aS'o688'
p1700
aS'o689'
p1701
aS'o690'
p1702
aS'o691'
p1703
aS'o692'
p1704
aS'o693'
p1705
aS'o694'
p1706
aS'o695'
p1707
aS'o696'
p1708
aS'o697'
p1709
aS'o698'
p1710
aS'o699'
p1711
aS'o700'
p1712
aS'o701'
p1713
aS'o702'
p1714
aS'o703'
p1715
aS'o704'
p1716
aS'o705'
p1717
aS'o706'
p1718
aS'o707'
p1719
aS'o708'
p1720
aS'o709'
p1721
aS'o710'
p1722
aS'o711'
p1723
aS'o712'
p1724
aS'o713'
p1725
aS'o714'
p1726
aS'o715'
p1727
aS'o716'
p1728
aS'o717'
p1729
aS'o718'
p1730
aS'o719'
p1731
aS'o720'
p1732
aS'o721'
p1733
aS'o722'
p1734
aS'o723'
p1735
aS'o724'
p1736
aS'o725'
p1737
aS'o726'
p1738
aS'o727'
p1739
aS'o728'
p1740
aS'o729'
p1741
aS'o730'
p1742
aS'o731'
p1743
aS'o732'
p1744
aS'o733'
p1745
aS'o734'
p1746
aS'o735'
p1747
aS'o736'
p1748
aS'o737'
p1749
aS'o738'
p1750
aS'o739'
p1751
aS'o740'
p1752
aS'o741'
p1753
aS'o742'
p1754
aS'o743'
p1755
aS'o744'
p1756
aS'o745'
p1757
aS'o746'
p1758
aS'o747'
p1759
aS'o748'
p1760
aS'o749'
p1761
aS'o750'
p1762
aS'o751'
p1763
aS'o752'
p1764
aS'o753'
p1765
aS'o754'
p1766
aS'o755'
p1767
aS'o756'
p1768
aS'o757'
p1769
aS'o758'
p1770
aS'o759'
p1771
aS'o760'
p1772
aS'o761'
p1773
aS'o762'
p1774
aS'o763'
p1775
aS'o764'
p1776
aS'o765'
p1777
aS'o766'
p1778
aS'o767'
p1779
aS'o768'
p1780
aS'o769'
p1781
aS'o770'
p1782
aS'o771'
p1783
aS'o772'
p1784
aS'o773'
p1785
aS'o774'
p1786
aS'o775'
p1787
aS'o776'
p1788
aS'o777'
p1789
aS'o778'
p1790
aS'o779'
p1791
aS'o780'
p1792
aS'o781'
p1793
aS'o782'
p1794
aS'o783'
p1795
aS'o784'
p1796
aS'o785'
p1797
aS'o786'
p1798
aS'o787'
p1799
aS'o788'
p1800
aS'o789'
p1801
aS'o790'
p1802
aS'o791'
p1803
aS'o792'
p1804
aS'o793'
p1805
aS'o794'
p1806
aS'o795'
p1807
aS'o796'
p1808
aS'o797'
p1809
aS'o798'
p1810
aS'o799'
p1811
aS'o800'
p1812
aS'o801'
p1813
aS'o802'
p1814
aS'o803'
p1815
aS'o804'
p1816
aS'o805'
p1817
aS'o806'
p1818
aS'o807'
p1819
aS'o808'
p1820
aS'o809'
p1821
aS'o810'
p1822
aS'o811'
p1823
aS'o812'
p1824
aS'o813'
p1825
aS'o814'
p1826
aS'o815'
p1827
aS'o816'
p1828
aS'o817'
p1829
aS'o818'
p1830
aS'o819'
p1831
aS'o820'
p1832
aS'o821'
p1833
aS'o822'
p1834
aS'o823'
p1835
aS'o824'
p1836
aS'o825'
p1837
aS'o826'
p1838
aS'o827'
p1839
aS'o828'
p1840
aS'o829'
p1841
aS'o830'
p1842
aS'o831'
p1843
aS'o832'
p1844
aS'o833'
p1845
aS'o834'
p1846
aS'o835'
p1847
aS'o836'
p1848
aS'o837'
p1849
aS'o838'
p1850
aS'o839'
p1851
aS'o840'
p1852
aS'o841'
p1853
aS'o842'
p1854
aS'o843'
p1855
aS'o844'
p1856
aS'o845'
p1857
aS'o846'
p1858
aS'o847'
p1859
aS'o848'
p1860
aS'o849'
p1861
aS'o850'
p1862
aS'o851'
p1863
aS'o852'
p1864
aS'o853'
p1865
aS'o854'
p1866
aS'o855'
p1867
aS'o856'
p1868
aS'o857'
p1869
aS'o858'
p1870
aS'o859'
p1871
aS'o860'
p1872
aS'o861'
p1873
aS'o862'
p1874
aS'o863'
p1875
aS'o864'
p1876
aS'o865'
p1877
aS'o866'
p1878
aS'o867'
p1879
aS'o868'
p1880
aS'o869'
p1881
aS'o870'
p1882
aS'o871'
p1883
aS'o872'
p1884
aS'o873'
p1885
aS'o874'
p1886
aS'o875'
p1887
aS'o876'
p1888
aS'o877'
p1889
aS'o878'
p1890
aS'o879'
p1891
aS'o880'
p1892
aS'o881'
p1893
aS'o882'
p1894
aS'o883'
p1895
aS'o884'
p1896
aS'o885'
p1897
aS'o886'
p1898
aS'o887'
p1899
aS'o888'
p1900
aS'o889'
p1901
aS'o890'
p1902
aS'o891'
p1903
aS'o892'
p1904
aS'o893'
p1905
aS'o894'
p1906
aS'o895'
p1907
aS'o896'
p1908
aS'o897'
p1909
aS'o898'
p1910
aS'o899'
p1911
aS'o900'
p1912
aS'o901'
p1913
aS'o902'
p1914
aS'o903'
p1915
aS'o904'
p1916
aS'o905'
p1917
aS'o906'
p1918
aS'o907'
p1919
aS'o908'
p1920
aS'o909'
p1921
aS'o910'
p1922
aS'o911'
p1923
aS'o912'
p1924
aS'o913'
p1925
aS'o914'
p1926
aS'o915'
p1927
aS'o916'
p1928
aS'o917'
p1929
aS'o918'
p1930
aS'o919'
p1931
aS'o920'
p1932
aS'o921'
p1933
aS'o922'
p1934
aS'o923'
p1935
aS'o924'
p1936
aS'o925'
p1937
aS'o926'
p1938
aS'o927'
p1939
aS'o928'
p1940
aS'o929'
p1941
aS'o930'
p1942
aS'o931'
p1943
aS'o932'
p1944
aS'o933'
p1945
aS'o934'
p1946
aS'o935'
p1947
aS'o936'
p1948
aS'o937'
p1949
aS'o938'
p1950
aS'o939'
p1951
aS'o940'
p1952
aS'o941'
p1953
aS'o942'
p1954
aS'o943'
p1955
aS'o944'
p1956
aS'o945'
p1957
aS'o946'
p1958
aS'o947'
p1959
aS'o948'
p1960
aS'o949'
p1961
aS'o950'
p1962
aS'o951'
p1963
aS'o952'
p1964
aS'o953'
p1965
aS'o954'
p1966
aS'o955'
p1967
aS'o956'
p1968
aS'o957'
p1969
aS'o958'
p1970
aS'o959'
p1971
aS'o960'
p1972
aS'o961'
p1973
aS'o962'
p1974
aS'o963'
p1975
aS'o964'
p1976
aS'o965'
p1977
aS'o966'
p1978
aS'o967'
p1979
aS'o968'
p1980
aS'o969'
p1981
aS'o970'
p1982
aS'o971'
p1983
aS'o972'
p1984
aS'o973'
p1985
aS'o974'
p1986
aS'o975'
p1987
aS'o976'
p1988
aS'o977'
p1989
aS'o978'
p1990
aS'o979'
p1991
aS'o980'
p1992
aS'o981'
p1993
aS'o982'
p1994
aS'o983'
p1995
aS'o984'
p1996
aS'o985'
p1997
aS'o986'
p1998
aS'o987'
p1999
aS'o988'
p2000
aS'o989'
p2001
aS'o990'
p2002
aS'o991'
p2003
aS'o992'
p2004
aS'o993'
p2005
aS'o994'
p2006
aS'o995'
p2007
aS'o996'
p2008
aS'o997'
p2009
aS'o998'
p2010
aS'o999'
p2011
asS'attribute_list'
p2012
(lp2013
S'a0'
p2014
aS'a1'
p2015
aS'a2'
p2016
aS'a3'
p2017
aS'a4'
p2018
aS'a5'
p2019
aS'a6'
p2020
aS'a7'
p2021
aS'a8'
p2022
aS'a9'
p2023
aS'a10'
p2024
aS'a11'
p2025
aS'a12'
p2026
aS'a13'
p2027
aS'a14'
p2028
aS'a15'
p2029
aS'a16'
p2030
aS'a17'
p2031
aS'a18'
p2032
aS'a19'
p2033
asS'br_list'
p2034
(lp2035
(lp2036
I0
aI0
aI0
aI0
aI1
aI0
aI0
aI0
aI0
aI0
aI0
aI1
aI0
aI0
aI0
aI0
aI1
aI0
aI0
aI0
aa(lp2037
I0
aI0
aI0
aI0
aI0
aI0
aI0
aI0
aI0
aI1
aI0
aI0
aI1
aI0
aI0
aI1
aI0
aI0
aI0
aI1
aa(lp2038
I0
aI0
aI0
aI0
aI0
aI0
aI1
aI0
aI0
aI0
aI0
aI0
aI0
aI1
aI0
aI0
aI0
aI0
aI0
aI1
aa(lp2039
I1
aI0
aI0
aI0
aI0
aI0
aI0
aI0
aI0
aI1
aI1
aI0
aI0
aI0
aI0
aI1
aI0
aI0
aI0
aI0
aa(lp2040
I0
aI0
aI0
aI1
aI0
aI0
aI0
aI0
aI0
aI0
aI0
aI0
aI0
aI1
aI0
aI0
aI0
aI0
aI1
aI0
aa(lp2041
I0
aI0
aI1
aI0
aI0
aI0
aI0
aI0
aI1
aI0
aI0
aI0
aI0
aI0
aI0
aI0
aI1
aI0
aI1
aI0
aa(lp2042
I0
aI0
aI0
aI1
aI0
aI1
aI0
aI0
aI0
aI0
aI0
aI0
aI1
aI0
aI0
aI0
aI0
aI1
aI0
aI0
aa(lp2043
I1
aI1
aI0
aI0
aI0
aI0
aI1
aI0
aI0
aI0
aI0
aI0
aI0
aI0
aI1
aI0
aI0
aI0
aI0
aI0
aa(lp2044
I1
aI0
aI0
aI0
aI0
aI0
aI0
aI1
aI0
aI0
aI0
aI0
aI0
aI0
aI0
aI0
aI0
aI1
aI0
aI1
aa(lp2045
I0
aI0
aI0
aI0
aI1
aI0
aI0
aI1
aI0
aI0
aI0
aI0
aI0
aI1
aI0
aI0
aI0
aI0
aI0
aI1
aa(lp2046
I1
aI0
aI1
aI0
aI0
aI0
aI0
aI0
aI0
aI0
aI0
aI0
aI0
aI0
aI1
aI0
aI0
aI1
aI0
aI0
aa(lp2047
I0
aI0
aI0
aI0
aI0
aI0
aI0
aI0
aI0
aI0
aI1
aI0
aI0
aI0
aI1
aI0
aI1
aI0
aI1
aI0
aa(lp2048
I0
aI0
aI0
aI0
aI1
aI0
aI0
aI0
aI0
aI0
aI0
aI0
aI1
aI0
aI0
aI0
aI0
aI1
aI1
aI0
aa(lp2049
I0
aI0
aI0
aI1
aI0
aI0
aI0
aI0
aI0
aI0
aI0
aI1
aI0
aI0
aI0
aI0
aI1
aI1
aI0
aI0
aa(lp2050
I0
aI0
aI0
aI0
aI0
aI0
aI0
aI0
aI1
aI0
aI0
aI1
aI1
aI0
aI0
aI0
aI1
aI0
aI0
aI0
aa(lp2051
I0
aI0
aI0
aI0
aI1
aI1
aI0
aI0
aI0
aI0
aI0
aI0
aI0
aI0
aI0
aI0
aI0
aI1
aI0
aI0
aa(lp2052
I0
aI0
aI0
aI1
aI1
aI0
aI0
aI0
aI0
aI0
aI0
aI0
aI0
aI0
aI0
aI0
aI0
aI0
aI0
aI0
aa(lp2053
I0
aI0
aI0
aI0
aI0
aI1
aI0
aI0
aI1
aI0
aI0
aI0
aI0
aI0
aI0
aI0
aI1
aI0
aI1
aI0
aa(lp2054
I0
aI1
aI0
aI0
aI0
aI0
aI1
aI0
aI0
aI1
aI0
aI0
aI0
aI0
aI0
aI0
aI0
aI0
aI0
aI0
aa(lp2055
I0
aI0
aI1
aI0
aI0
aI0
aI0
aI0
aI0
aI1
aI1
aI0
aI0
aI0
aI1
aI0
aI0
aI0
aI0
aI0
aa(lp2056
I1
aI0
aI0
aI1
aI0
aI0
aI0
aI0
aI0
aI0
aI1
aI0
aI0
aI0
aI0
aI0
aI0
aI1
aI0
aI0
aa(lp2057
I0
aI0
aI0
aI0
aI1
aI0
aI0
aI0
aI1
aI0
aI0
aI0
aI0
aI1
aI0
aI0
aI0
aI1
aI0
aI0
aa(lp2058
I0
aI0
aI0
aI0
aI1
aI0
aI0
aI0
aI1
aI0
aI0
aI1
aI0
aI0
aI0
aI0
aI0
aI0
aI0
aI0
aa(lp2059
I0
aI0
aI1
aI0
aI0
aI0
aI0
aI0
aI0
aI0
aI1
aI0
aI0
aI1
aI0
aI0
aI0
aI1
aI0
aI0
aa(lp2060
I0
aI0
aI1
aI0
aI0
aI0
aI0
aI0
aI0
aI1
aI1
aI0
aI0
aI0
aI0
aI0
aI0
aI0
aI0
aI1
aa(lp2061
I0
aI1
aI1
aI0
aI0
aI0
aI0
aI0
aI0
aI1
aI0
aI0
aI0
aI0
aI0
aI0
aI1
aI0
aI0
aI0
aa(lp2062
I1
aI0
aI0
aI0
aI0
aI1
aI0
aI0
aI0
aI1
aI0
aI0
aI1
aI0
aI0
aI0
aI0
aI0
aI0
aI0
aa(lp2063
I0
aI0
aI0
aI0
aI0
aI0
aI0
aI1
aI0
aI0
aI1
aI0
aI0
aI1
aI0
aI0
aI1
aI0
aI0
aI0
aa(lp2064
I0
aI0
aI0
aI0
aI1
aI0
aI0
aI0
aI1
aI0
aI0
aI0
aI1
aI1
aI0
aI0
aI0
aI0
aI0
aI0
aa(lp2065
I0
aI0
aI0
aI0
aI0
aI1
aI0
aI0
aI0
aI0
aI0
aI0
aI0
aI0
aI0
aI0
aI0
aI1
aI0
aI0
aa(lp2066
I0
aI0
aI0
aI0
aI1
aI0
aI0
aI1
aI0
aI0
aI0
aI0
aI0
aI1
aI0
aI0
aI0
aI0
aI0
aI0
aa(lp2067
I0
aI0
aI0
aI0
aI1
aI0
aI0
aI1
aI0
aI0
aI0
aI1
aI0
aI0
aI0
aI0
aI0
aI0
aI0
aI0
aa(lp2068
I0
aI0
aI0
aI0
aI0
aI1
aI0
aI1
aI0
aI0
aI0
aI0
aI1
aI0
aI0
aI0
aI0
aI0
aI0
aI0
aa(lp2069
I0
aI0
aI0
aI0
aI0
aI0
aI0
aI0
aI1
aI0
aI1
aI0
aI0
aI0
aI0
aI0
aI1
aI0
aI1
aI0
aa(lp2070
I1
aI0
aI0
aI0
aI0
aI0
aI0
aI1
aI0
aI1
aI0
aI0
aI0
aI0
aI0
aI0
aI0
aI1
aI0
aI0
aa(lp2071
I0
aI0
aI0
aI0
aI0
aI0
aI0
aI0
aI1
aI1
aI1
aI0
aI0
aI0
aI0
aI1
aI0
aI0
aI0
aI0
aa(lp2072
I1
aI0
aI0
aI0
aI0
aI0
aI0
aI0
aI1
aI0
aI0
aI0
aI0
aI0
aI1
aI0
aI0
aI0
aI1
aI0
aa(lp2073
I1
aI1
aI0
aI0
aI0
aI0
aI1
aI0
aI0
aI1
aI0
aI0
aI0
aI0
aI0
aI0
aI0
aI0
aI0
aI0
aa(lp2074
I0
aI0
aI0
aI0
aI0
aI1
aI1
aI0
aI0
aI0
aI0
aI0
aI0
aI0
aI0
aI1
aI0
aI0
aI0
aI1
aa(lp2075
I1
aI0
aI0
aI0
aI0
aI0
aI0
aI0
aI0
aI0
aI1
aI0
aI0
aI0
aI0
aI0
aI0
aI1
aI1
aI0
aa(lp2076
I1
aI0
aI0
aI0
aI0
aI0
aI0
aI0
aI0
aI0
aI1
aI0
aI0
aI1
aI0
aI0
aI0
aI0
aI0
aI0
aa(lp2077
I0
aI1
aI0
aI0
aI0
aI0
aI0
aI0
aI0
aI0
aI0
aI0
aI0
aI0
aI0
aI0
aI1
aI0
aI0
aI0
aa(lp2078
I0
aI0
aI0
aI1
aI1
aI0
aI0
aI1
aI1
aI0
aI0
aI0
aI0
aI0
aI0
aI0
aI0
aI0
aI0
aI0
aa(lp2079
I0
aI1
aI0
aI0
aI0
aI0
aI1
aI1
aI0
aI0
aI0
aI0
aI0
aI0
aI0
aI0
aI0
aI0
aI0
aI0
aa(lp2080
I1
aI0
aI0
aI0
aI0
aI0
aI0
aI0
aI0
aI0
aI0
aI0
aI0
aI0
aI1
aI0
aI0
aI1
aI0
aI0
aa(lp2081
I0
aI0
aI0
aI0
aI0
aI0
aI0
aI0
aI0
aI1
aI1
aI0
aI0
aI0
aI1
aI0
aI0
aI0
aI1
aI0
aa(lp2082
I0
aI0
aI0
aI0
aI0
aI0
aI0
aI0
aI0
aI0
aI0
aI1
aI0
aI0
aI0
aI0
aI1
aI1
aI0
aI1
aa(lp2083
I1
aI1
aI1
aI0
aI0
aI0
aI0
aI0
aI0
aI0
aI0
aI0
aI0
aI0
aI0
aI0
aI0
aI0
aI1
aI0
aa(lp2084
I0
aI0
aI0
aI0
aI0
aI0
aI0
aI1
aI1
aI0
aI0
aI0
aI0
aI0
aI1
aI0
aI0
aI0
aI1
aI0
aa(lp2085
I0
aI0
aI0
aI1
aI1
aI0
aI0
aI0
aI0
aI0
aI0
aI0
aI0
aI0
aI1
aI0
aI0
aI0
aI0
aI1
aa(lp2086
I0
aI0
aI0
aI0
aI1
aI0
aI1
aI0
aI0
aI1
aI1
aI0
aI0
aI0
aI0
aI0
aI0
aI0
aI0
aI0
aa(lp2087
I0
aI0
aI0
aI0
aI0
aI0
aI0
aI0
aI0
aI0
aI0
aI1
aI1
aI0
aI1
aI0
aI0
aI0
aI1
aI0
aa(lp2088
I0
aI0
aI0
aI0
aI0
aI0
aI0
aI0
aI1
aI1
aI0
aI0
aI1
aI0
aI0
aI0
aI1
aI0
aI0
aI0
aa(lp2089
I1
aI0
aI0
aI0
aI0
aI0
aI0
aI0
aI0
aI0
aI0
aI0
aI0
aI0
aI1
aI1
aI0
aI0
aI0
aI1
aa(lp2090
I0
aI0
aI0
aI0
aI1
aI0
aI0
aI0
aI0
aI0
aI1
aI0
aI0
aI0
aI1
aI0
aI0
aI1
aI0
aI0
aa(lp2091
I0
aI0
aI0
aI0
aI0
aI0
aI1
aI0
aI0
aI0
aI0
aI0
aI0
aI0
aI0
aI0
aI0
aI1
aI1
aI1
aa(lp2092
I0
aI0
aI1
aI0
aI0
aI0
aI0
aI1
aI1
aI0
aI0
aI0
aI1
aI0
aI0
aI0
aI0
aI0
aI0
aI0
aa(lp2093
I1
aI0
aI0
aI0
aI0
aI1
aI0
aI0
aI0
aI0
aI0
aI0
aI0
aI0
aI0
aI0
aI1
aI0
aI1
aI0
aa(lp2094
I0
aI1
aI0
aI0
aI0
aI0
aI0
aI0
aI0
aI0
aI0
aI1
aI0
aI0
aI0
aI0
aI1
aI0
aI0
aI0
aa(lp2095
I0
aI0
aI0
aI0
aI0
aI1
aI0
aI1
aI0
aI0
aI0
aI0
aI0
aI0
aI1
aI0
aI0
aI0
aI1
aI0
aa(lp2096
I0
aI0
aI1
aI0
aI0
aI0
aI0
aI0
aI0
aI0
aI0
aI0
aI0
aI0
aI1
aI0
aI0
aI0
aI1
aI0
aa(lp2097
I1
aI0
aI0
aI0
aI0
aI0
aI0
aI0
aI1
aI1
aI0
aI1
aI0
aI0
aI0
aI0
aI0
aI0
aI0
aI0
aa(lp2098
I0
aI1
aI0
aI0
aI0
aI1
aI0
aI0
aI0
aI0
aI1
aI0
aI0
aI0
aI1
aI0
aI0
aI0
aI0
aI0
aa(lp2099
I0
aI0
aI0
aI0
aI1
aI0
aI0
aI0
aI0
aI0
aI0
aI1
aI0
aI0
aI0
aI0
aI1
aI1
aI0
aI0
aa(lp2100
I1
aI0
aI0
aI0
aI1
aI0
aI0
aI0
aI0
aI1
aI1
aI0
aI0
aI0
aI0
aI0
aI0
aI0
aI0
aI0
aa(lp2101
I0
aI0
aI0
aI0
aI0
aI0
aI0
aI0
aI0
aI0
aI1
aI0
aI0
aI0
aI1
aI0
aI0
aI1
aI1
aI0
aa(lp2102
I1
aI0
aI0
aI0
aI0
aI0
aI0
aI0
aI0
aI1
aI0
aI0
aI0
aI0
aI0
aI1
aI0
aI0
aI1
aI0
aa(lp2103
I0
aI0
aI0
aI0
aI0
aI0
aI0
aI0
aI0
aI0
aI0
aI0
aI1
aI0
aI0
aI0
aI0
aI1
aI1
aI0
aa(lp2104
I0
aI0
aI0
aI0
aI1
aI1
aI0
aI0
aI0
aI0
aI0
aI1
aI1
aI0
aI0
aI0
aI0
aI0
aI0
aI0
aa(lp2105
I0
aI0
aI0
aI0
aI1
aI0
aI0
aI0
aI0
aI0
aI1
aI1
aI0
aI1
aI0
aI0
aI0
aI0
aI0
aI0
aa(lp2106
I0
aI0
aI0
aI0
aI0
aI0
aI1
aI0
aI0
aI1
aI0
aI0
aI0
aI0
aI0
aI0
aI1
aI0
aI0
aI0
aa(lp2107
I0
aI1
aI0
aI1
aI0
aI1
aI0
aI0
aI0
aI0
aI0
aI0
aI0
aI0
aI0
aI1
aI0
aI0
aI0
aI0
aa(lp2108
I0
aI0
aI0
aI0
aI0
aI0
aI0
aI0
aI0
aI1
aI1
aI0
aI1
aI0
aI0
aI0
aI0
aI0
aI1
aI0
aa(lp2109
I0
aI0
aI0
aI0
aI0
aI1
aI0
aI0
aI0
aI0
aI1
aI1
aI0
aI0
aI0
aI0
aI0
aI0
aI1
aI0
aa(lp2110
I0
aI0
aI0
aI0
aI0
aI0
aI0
aI0
aI1
aI0
aI0
aI0
aI0
aI1
aI0
aI0
aI0
aI1
aI0
aI1
aa(lp2111
I0
aI0
aI0
aI0
aI0
aI0
aI0
aI0
aI1
aI0
aI0
aI0
aI0
aI0
aI0
aI0
aI0
aI0
aI1
aI1
aa(lp2112
I0
aI1
aI0
aI0
aI0
aI0
aI0
aI0
aI0
aI0
aI0
aI1
aI1
aI0
aI0
aI0
aI0
aI1
aI0
aI0
aa(lp2113
I1
aI0
aI0
aI0
aI0
aI0
aI0
aI0
aI1
aI0
aI0
aI0
aI1
aI0
aI0
aI0
aI1
aI0
aI0
aI0
aa(lp2114
I1
aI0
aI0
aI0
aI0
aI0
aI0
aI0
aI0
aI0
aI0
aI0
aI0
aI1
aI0
aI0
aI0
aI0
aI0
aI0
aa(lp2115
I0
aI1
aI0
aI0
aI0
aI0
aI1
aI1
aI0
aI0
aI0
aI0
aI0
aI0
aI0
aI0
aI0
aI1
aI0
aI0
aa(lp2116
I1
aI0
aI0
aI1
aI1
aI0
aI0
aI0
aI1
aI0
aI0
aI0
aI0
aI0
aI0
aI0
aI0
aI0
aI0
aI0
aa(lp2117
I1
aI1
aI0
aI1
aI0
aI0
aI0
aI0
aI0
aI0
aI0
aI1
aI0
aI0
aI0
aI0
aI0
aI0
aI0
aI0
aa(lp2118
I0
aI0
aI1
aI0
aI0
aI1
aI0
aI1
aI0
aI0
aI0
aI0
aI0
aI1
aI0
aI0
aI0
aI0
aI0
aI0
aa(lp2119
I1
aI0
aI0
aI0
aI0
aI0
aI0
aI0
aI1
aI0
aI0
aI1
aI0
aI0
aI0
aI0
aI0
aI0
aI0
aI0
aa(lp2120
I0
aI0
aI0
aI0
aI0
aI0
aI0
aI0
aI0
aI0
aI0
aI0
aI0
aI0
aI1
aI0
aI0
aI1
aI0
aI0
aa(lp2121
I1
aI0
aI0
aI0
aI0
aI0
aI0
aI0
aI0
aI0
aI0
aI0
aI0
aI1
aI0
aI1
aI0
aI0
aI0
aI0
aa(lp2122
I1
aI0
aI0
aI0
aI1
aI0
aI0
aI0
aI1
aI1
aI0
aI0
aI0
aI0
aI0
aI0
aI0
aI0
aI0
aI0
aa(lp2123
I0
aI0
aI1
aI0
aI0
aI0
aI0
aI0
aI0
aI0
aI1
aI0
aI0
aI0
aI0
aI0
aI0
aI1
aI0
aI0
aa(lp2124
I0
aI0
aI1
aI0
aI0
aI0
aI1
aI0
aI0
aI0
aI0
aI0
aI0
aI0
aI0
aI0
aI0
aI1
aI1
aI0
aa(lp2125
I0
aI1
aI0
aI0
aI0
aI0
aI0
aI0
aI0
aI0
aI0
aI1
aI0
aI1
aI1
aI0
aI0
aI0
aI0
aI0
aa(lp2126
I0
aI0
aI0
aI0
aI0
aI0
aI0
aI0
aI1
aI0
aI0
aI0
aI0
aI0
aI1
aI1
aI0
aI1
aI0
aI0
aa(lp2127
I1
aI0
aI0
aI1
aI0
aI0
aI0
aI0
aI0
aI0
aI1
aI0
aI0
aI0
aI0
aI0
aI0
aI0
aI0
aI1
aa(lp2128
I0
aI1
aI0
aI1
aI1
aI0
aI0
aI0
aI0
aI0
aI1
aI0
aI0
aI0
aI0
aI0
aI0
aI0
aI0
aI0
aa(lp2129
I0
aI0
aI0
aI0
aI0
aI0
aI0
aI0
aI0
aI0
aI1
aI0
aI1
aI0
aI0
aI0
aI0
aI0
aI0
aI1
aa(lp2130
I0
aI1
aI0
aI0
aI0
aI0
aI0
aI0
aI0
aI0
aI0
aI1
aI0
aI0
aI1
aI0
aI1
aI0
aI0
aI0
aa(lp2131
I0
aI0
aI0
aI1
aI0
aI0
aI1
aI0
aI0
aI1
aI1
aI0
aI0
aI0
aI0
aI0
aI0
aI0
aI0
aI0
aa(lp2132
I0
aI0
aI1
aI0
aI1
aI0
aI1
aI0
aI0
aI0
aI0
aI0
aI0
aI0
aI0
aI0
aI0
aI0
aI0
aI1
aa(lp2133
I0
aI0
aI0
aI0
aI0
aI1
aI0
aI1
aI0
aI0
aI0
aI0
aI1
aI0
aI1
aI0
aI0
aI0
aI0
aI0
aa(lp2134
I0
aI0
aI0
aI0
aI0
aI1
aI0
aI0
aI0
aI0
aI1
aI0
aI0
aI0
aI0
aI0
aI0
aI1
aI1
aI0
aa(lp2135
I0
aI0
aI0
aI1
aI0
aI0
aI1
aI0
aI0
aI0
aI0
aI0
aI0
aI0
aI0
aI0
aI1
aI1
aI0
aI0
aa(lp2136
I0
aI0
aI0
aI0
aI1
aI0
aI0
aI0
aI0
aI0
aI1
aI1
aI0
aI0
aI1
aI0
aI0
aI0
aI0
aI0
aa(lp2137
I0
aI0
aI1
aI1
aI0
aI0
aI0
aI0
aI0
aI1
aI0
aI0
aI0
aI1
aI0
aI0
aI0
aI0
aI0
aI0
aa(lp2138
I1
aI0
aI1
aI0
aI1
aI0
aI0
aI0
aI0
aI0
aI0
aI0
aI1
aI0
aI0
aI0
aI0
aI0
aI0
aI0
aa(lp2139
I0
aI0
aI0
aI0
aI0
aI1
aI0
aI0
aI0
aI0
aI0
aI1
aI0
aI0
aI0
aI0
aI0
aI0
aI0
aI0
aa(lp2140
I0
aI0
aI0
aI0
aI0
aI0
aI1
aI0
aI0
aI0
aI0
aI0
aI1
aI1
aI0
aI1
aI0
aI0
aI0
aI0
aa(lp2141
I0
aI0
aI0
aI1
aI0
aI0
aI0
aI0
aI0
aI0
aI0
aI0
aI0
aI0
aI0
aI0
aI1
aI0
aI0
aI0
aa(lp2142
I0
aI0
aI0
aI1
aI1
aI0
aI0
aI1
aI0
aI0
aI0
aI0
aI1
aI0
aI0
aI0
aI0
aI0
aI0
aI0
aa(lp2143
I0
aI0
aI0
aI1
aI1
aI1
aI0
aI0
aI0
aI0
aI0
aI0
aI0
aI1
aI0
aI0
aI0
aI0
aI0
aI0
aa(lp2144
I1
aI0
aI0
aI0
aI0
aI0
aI0
aI0
aI0
aI1
aI0
aI0
aI1
aI0
aI0
aI0
aI0
aI0
aI1
aI0
aa(lp2145
I0
aI0
aI0
aI0
aI0
aI0
aI0
aI0
aI0
aI0
aI1
aI0
aI0
aI0
aI1
aI0
aI1
aI0
aI0
aI0
aa(lp2146
I0
aI0
aI0
aI1
aI0
aI0
aI0
aI1
aI0
aI0
aI0
aI0
aI0
aI0
aI1
aI0
aI1
aI0
aI0
aI0
aa(lp2147
I1
aI0
aI1
aI0
aI0
aI0
aI0
aI1
aI0
aI0
aI0
aI0
aI1
aI0
aI0
aI0
aI0
aI0
aI0
aI0
aa(lp2148
I0
aI1
aI0
aI0
aI0
aI0
aI0
aI0
aI0
aI1
aI1
aI0
aI0
aI0
aI0
aI1
aI0
aI0
aI0
aI0
aa(lp2149
I0
aI0
aI1
aI0
aI0
aI1
aI0
aI0
aI0
aI0
aI0
aI0
aI0
aI0
aI0
aI0
aI1
aI0
aI0
aI0
aa(lp2150
I1
aI0
aI1
aI0
aI0
aI0
aI0
aI0
aI0
aI0
aI0
aI1
aI0
aI0
aI0
aI1
aI0
aI0
aI0
aI0
aa(lp2151
I0
aI0
aI1
aI0
aI1
aI0
aI0
aI0
aI0
aI0
aI1
aI0
aI0
aI0
aI0
aI0
aI0
aI0
aI0
aI1
aa(lp2152
I0
aI0
aI1
aI0
aI0
aI0
aI0
aI1
aI0
aI0
aI0
aI0
aI0
aI0
aI1
aI0
aI0
aI0
aI1
aI0
aa(lp2153
I1
aI0
aI1
aI0
aI0
aI0
aI0
aI0
aI0
aI0
aI1
aI0
aI0
aI0
aI0
aI0
aI0
aI0
aI1
aI0
aa(lp2154
I0
aI0
aI1
aI0
aI0
aI0
aI0
aI0
aI0
aI0
aI0
aI0
aI1
aI1
aI0
aI0
aI0
aI0
aI0
aI1
aa(lp2155
I0
aI0
aI0
aI0
aI0
aI0
aI0
aI0
aI0
aI0
aI1
aI0
aI1
aI0
aI0
aI0
aI1
aI0
aI0
aI0
aa(lp2156
I1
aI0
aI0
aI1
aI0
aI0
aI0
aI0
aI0
aI0
aI0
aI0
aI0
aI0
aI0
aI0
aI0
aI0
aI0
aI1
aa(lp2157
I0
aI0
aI0
aI1
aI0
aI1
aI0
aI0
aI0
aI0
aI0
aI0
aI0
aI0
aI1
aI0
aI0
aI1
aI0
aI0
aa(lp2158
I1
aI1
aI0
aI0
aI0
aI1
aI0
aI0
aI0
aI0
aI0
aI0
aI0
aI0
aI1
aI0
aI0
aI0
aI0
aI0
aa(lp2159
I0
aI0
aI0
aI0
aI0
aI1
aI0
aI0
aI0
aI0
aI0
aI0
aI1
aI0
aI0
aI0
aI0
aI1
aI0
aI0
aa(lp2160
I0
aI1
aI0
aI1
aI0
aI1
aI0
aI0
aI0
aI0
aI1
aI0
aI0
aI0
aI0
aI0
aI0
aI0
aI0
aI0
aa(lp2161
I0
aI0
aI0
aI0
aI0
aI0
aI1
aI0
aI1
aI1
aI0
aI0
aI0
aI0
aI0
aI0
aI0
aI0
aI0
aI0
aa(lp2162
I0
aI0
aI0
aI0
aI1
aI1
aI0
aI0
aI1
aI0
aI0
aI0
aI0
aI0
aI0
aI0
aI0
aI0
aI0
aI1
aa(lp2163
I0
aI1
aI0
aI0
aI1
aI0
aI0
aI1
aI0
aI0
aI0
aI0
aI0
aI0
aI0
aI1
aI0
aI0
aI0
aI0
aa(lp2164
I1
aI0
aI0
aI0
aI0
aI1
aI0
aI0
aI0
aI0
aI0
aI0
aI1
aI0
aI0
aI0
aI0
aI0
aI1
aI0
aa(lp2165
I0
aI1
aI0
aI0
aI0
aI1
aI0
aI0
aI0
aI0
aI0
aI1
aI0
aI0
aI0
aI0
aI0
aI0
aI1
aI0
aa(lp2166
I0
aI0
aI1
aI0
aI0
aI0
aI1
aI0
aI0
aI0
aI0
aI0
aI1
aI0
aI0
aI0
aI0
aI0
aI0
aI1
aa(lp2167
I0
aI1
aI0
aI0
aI0
aI0
aI0
aI0
aI1
aI1
aI0
aI0
aI0
aI0
aI0
aI1
aI0
aI0
aI0
aI0
aa(lp2168
I0
aI1
aI0
aI0
aI0
aI0
aI0
aI0
aI1
aI0
aI0
aI0
aI1
aI0
aI0
aI0
aI1
aI0
aI0
aI0
aa(lp2169
I0
aI0
aI1
aI0
aI0
aI0
aI0
aI0
aI0
aI0
aI0
aI0
aI0
aI0
aI0
aI0
aI0
aI1
aI1
aI0
aa(lp2170
I0
aI0
aI0
aI0
aI0
aI0
aI0
aI0
aI1
aI0
aI0
aI0
aI1
aI0
aI0
aI1
aI0
aI1
aI0
aI0
aa(lp2171
I1
aI0
aI1
aI0
aI0
aI0
aI0
aI0
aI0
aI0
aI0
aI0
aI0
aI1
aI0
aI0
aI0
aI0
aI0
aI1
aa(lp2172
I0
aI0
aI0
aI1
aI0
aI0
aI0
aI0
aI0
aI0
aI1
aI1
aI1
aI0
aI0
aI0
aI0
aI0
aI0
aI0
aa(lp2173
I0
aI0
aI0
aI0
aI0
aI1
aI1
aI0
aI0
aI0
aI0
aI1
aI0
aI0
aI0
aI1
aI0
aI0
aI0
aI0
aa(lp2174
I0
aI0
aI0
aI0
aI0
aI0
aI0
aI1
aI0
aI1
aI0
aI0
aI0
aI0
aI0
aI0
aI0
aI0
aI1
aI1
aa(lp2175
I0
aI0
aI0
aI0
aI0
aI0
aI1
aI1
aI0
aI1
aI1
aI0
aI0
aI0
aI0
aI0
aI0
aI0
aI0
aI0
aa(lp2176
I0
aI0
aI0
aI0
aI0
aI0
aI1
aI0
aI0
aI1
aI1
aI0
aI0
aI0
aI0
aI0
aI0
aI0
aI0
aI1
aa(lp2177
I0
aI0
aI1
aI0
aI0
aI0
aI1
aI0
aI0
aI0
aI0
aI0
aI1
aI0
aI0
aI1
aI0
aI0
aI0
aI0
aa(lp2178
I0
aI0
aI0
aI0
aI1
aI0
aI0
aI0
aI0
aI0
aI1
aI1
aI0
aI0
aI0
aI1
aI0
aI0
aI0
aI0
aa(lp2179
I0
aI0
aI0
aI0
aI0
aI0
aI0
aI0
aI0
aI1
aI1
aI0
aI0
aI0
aI1
aI0
aI0
aI0
aI1
aI0
aa(lp2180
I0
aI1
aI0
aI0
aI1
aI0
aI0
aI0
aI1
aI0
aI0
aI0
aI0
aI0
aI0
aI0
aI0
aI0
aI0
aI0
aa(lp2181
I0
aI0
aI0
aI0
aI0
aI0
aI1
aI0
aI0
aI1
aI1
aI0
aI1
aI0
aI0
aI0
aI0
aI0
aI0
aI0
aa(lp2182
I1
aI0
aI0
aI1
aI0
aI0
aI0
aI0
aI0
aI0
aI0
aI0
aI1
aI0
aI0
aI0
aI0
aI0
aI0
aI0
aa(lp2183
I0
aI0
aI0
aI0
aI0
aI0
aI0
aI0
aI0
aI0
aI0
aI1
aI0
aI1
aI0
aI0
aI0
aI0
aI0
aI0
aa(lp2184
I0
aI0
aI0
aI0
aI0
aI1
aI0
aI0
aI0
aI0
aI0
aI0
aI0
aI1
aI0
aI0
aI1
aI0
aI0
aI0
aa(lp2185
I0
aI0
aI0
aI0
aI0
aI1
aI0
aI0
aI0
aI0
aI1
aI0
aI0
aI0
aI0
aI1
aI1
aI0
aI0
aI0
aa(lp2186
I0
aI0
aI0
aI0
aI0
aI0
aI0
aI0
aI0
aI0
aI1
aI1
aI0
aI0
aI0
aI0
aI0
aI1
aI0
aI1
aa(lp2187
I0
aI0
aI0
aI1
aI0
aI0
aI1
aI1
aI0
aI0
aI0
aI0
aI0
aI1
aI0
aI0
aI0
aI0
aI0
aI0
aa(lp2188
I0
aI1
aI0
aI0
aI0
aI0
aI0
aI0
aI0
aI1
aI0
aI0
aI1
aI0
aI0
aI0
aI0
aI0
aI0
aI1
aa(lp2189
I0
aI0
aI0
aI1
aI0
aI0
aI1
aI0
aI0
aI0
aI0
aI0
aI0
aI0
aI0
aI0
aI1
aI0
aI1
aI0
aa(lp2190
I0
aI0
aI0
aI0
aI0
aI0
aI0
aI1
aI0
aI0
aI0
aI1
aI0
aI0
aI0
aI1
aI0
aI0
aI0
aI0
aa(lp2191
I0
aI1
aI0
aI0
aI1
aI0
aI0
aI0
aI0
aI0
aI1
aI1
aI0
aI0
aI0
aI0
aI0
aI0
aI0
aI0
aa(lp2192
I0
aI0
aI1
aI0
aI0
aI0
aI0
aI0
aI0
aI1
aI0
aI0
aI0
aI0
aI1
aI0
aI0
aI0
aI0
aI1
aa(lp2193
I0
aI0
aI0
aI0
aI1
aI0
aI0
aI1
aI0
aI0
aI1
aI0
aI0
aI0
aI1
aI0
aI0
aI0
aI0
aI0
aa(lp2194
I1
aI0
aI0
aI0
aI0
aI0
aI0
aI1
aI0
aI0
aI0
aI0
aI0
aI0
aI0
aI0
aI0
aI0
aI1
aI0
aa(lp2195
I0
aI1
aI0
aI0
aI0
aI1
aI0
aI0
aI0
aI0
aI0
aI0
aI1
aI0
aI0
aI0
aI0
aI1
aI0
aI0
aa(lp2196
I0
aI1
aI1
aI0
aI0
aI1
aI0
aI1
aI0
aI0
aI0
aI0
aI0
aI0
aI0
aI0
aI0
aI0
aI0
aI0
aa(lp2197
I0
aI1
aI0
aI0
aI0
aI1
aI0
aI0
aI0
aI0
aI0
aI1
aI0
aI0
aI0
aI0
aI0
aI0
aI0
aI0
aa(lp2198
I0
aI0
aI0
aI0
aI0
aI0
aI0
aI0
aI0
aI0
aI1
aI0
aI1
aI1
aI0
aI0
aI1
aI0
aI0
aI0
aa(lp2199
I0
aI0
aI0
aI0
aI0
aI0
aI0
aI0
aI0
aI1
aI0
aI1
aI0
aI0
aI1
aI0
aI0
aI0
aI1
aI0
aa(lp2200
I0
aI0
aI0
aI0
aI0
aI0
aI0
aI0
aI0
aI1
aI0
aI1
aI0
aI0
aI0
aI1
aI0
aI0
aI0
aI1
aa(lp2201
I0
aI0
aI0
aI0
aI0
aI0
aI0
aI0
aI1
aI1
aI0
aI1
aI0
aI0
aI0
aI1
aI0
aI0
aI0
aI0
aa(lp2202
I0
aI1
aI0
aI0
aI0
aI1
aI0
aI0
aI0
aI0
aI1
aI0
aI0
aI0
aI0
aI0
aI0
aI0
aI1
aI0
aa(lp2203
I1
aI0
aI0
aI0
aI0
aI0
aI0
aI1
aI0
aI0
aI0
aI0
aI0
aI0
aI0
aI1
aI0
aI1
aI0
aI0
aa(lp2204
I0
aI0
aI0
aI1
aI0
aI0
aI0
aI0
aI1
aI0
aI0
aI0
aI0
aI0
aI1
aI0
aI0
aI1
aI0
aI0
aa(lp2205
I0
aI0
aI1
aI0
aI0
aI0
aI0
aI0
aI0
aI1
aI0
aI0
aI0
aI0
aI0
aI0
aI1
aI1
aI0
aI0
aa(lp2206
I0
aI0
aI0
aI0
aI0
aI1
aI0
aI0
aI1
aI0
aI1
aI0
aI0
aI0
aI0
aI0
aI0
aI0
aI1
aI0
aa(lp2207
I1
aI0
aI0
aI0
aI0
aI0
aI0
aI0
aI0
aI0
aI1
aI0
aI0
aI0
aI0
aI1
aI0
aI0
aI0
aI1
aa(lp2208
I0
aI0
aI0
aI0
aI0
aI0
aI1
aI1
aI0
aI0
aI0
aI0
aI1
aI0
aI0
aI0
aI0
aI0
aI0
aI1
aa(lp2209
I0
aI0
aI0
aI0
aI0
aI1
aI1
aI0
aI0
aI0
aI1
aI0
aI0
aI0
aI0
aI0
aI0
aI0
aI1
aI0
aa(lp2210
I0
aI0
aI0
aI0
aI0
aI0
aI1
aI0
aI0
aI0
aI0
aI0
aI1
aI0
aI0
aI0
aI1
aI0
aI1
aI0
aa(lp2211
I0
aI0
aI0
aI0
aI0
aI1
aI0
aI1
aI1
aI0
aI0
aI0
aI0
aI0
aI0
aI1
aI0
aI0
aI0
aI0
aa(lp2212
I0
aI0
aI0
aI1
aI0
aI0
aI0
aI0
aI0
aI0
aI0
aI0
aI0
aI1
aI0
aI0
aI1
aI0
aI0
aI0
aa(lp2213
I0
aI0
aI0
aI0
aI0
aI1
aI0
aI1
aI0
aI0
aI0
aI0
aI0
aI0
aI0
aI0
aI1
aI0
aI0
aI1
aa(lp2214
I0
aI0
aI0
aI0
aI0
aI0
aI0
aI0
aI1
aI0
aI0
aI1
aI0
aI0
aI0
aI0
aI1
aI1
aI0
aI0
aa(lp2215
I1
aI0
aI0
aI0
aI0
aI0
aI0
aI0
aI1
aI1
aI0
aI1
aI0
aI0
aI0
aI0
aI0
aI0
aI0
aI0
aa(lp2216
I0
aI1
aI1
aI0
aI0
aI0
aI0
aI0
aI0
aI0
aI0
aI0
aI0
aI1
aI0
aI0
aI0
aI0
aI0
aI1
aa(lp2217
I0
aI0
aI0
aI0
aI0
aI0
aI0
aI0
aI0
aI0
aI0
aI1
aI0
aI1
aI0
aI0
aI0
aI0
aI1
aI1
aa(lp2218
I0
aI0
aI0
aI1
aI0
aI0
aI0
aI1
aI0
aI1
aI0
aI1
aI0
aI0
aI0
aI0
aI0
aI0
aI0
aI0
aa(lp2219
I0
aI1
aI0
aI0
aI0
aI0
aI0
aI0
aI0
aI0
aI0
aI0
aI0
aI1
aI1
aI0
aI1
aI0
aI0
aI0
aa(lp2220
I1
aI0
aI0
aI0
aI0
aI0
aI0
aI0
aI0
aI0
aI0
aI0
aI0
aI0
aI0
aI1
aI1
aI0
aI0
aI0
aa(lp2221
I0
aI0
aI0
aI1
aI0
aI0
aI1
aI0
aI0
aI0
aI0
aI0
aI1
aI0
aI0
aI0
aI0
aI0
aI0
aI0
aa(lp2222
I0
aI0
aI0
aI0
aI0
aI0
aI1
aI0
aI0
aI0
aI0
aI0
aI0
aI0
aI0
aI0
aI1
aI1
aI0
aI0
aa(lp2223
I0
aI0
aI0
aI0
aI0
aI1
aI1
aI0
aI0
aI0
aI0
aI1
aI0
aI0
aI0
aI0
aI0
aI0
aI1
aI0
aa(lp2224
I0
aI1
aI0
aI0
aI0
aI0
aI0
aI1
aI0
aI0
aI0
aI0
aI0
aI0
aI0
aI0
aI0
aI1
aI1
aI0
aa(lp2225
I0
aI0
aI1
aI1
aI0
aI0
aI0
aI0
aI0
aI0
aI0
aI1
aI0
aI1
aI0
aI0
aI0
aI0
aI0
aI0
aa(lp2226
I1
aI0
aI0
aI0
aI0
aI1
aI1
aI0
aI1
aI0
aI0
aI0
aI0
aI0
aI0
aI0
aI0
aI0
aI0
aI0
aa(lp2227
I0
aI0
aI0
aI0
aI0
aI1
aI0
aI0
aI0
aI1
aI0
aI0
aI0
aI1
aI0
aI0
aI0
aI0
aI0
aI0
aa(lp2228
I1
aI0
aI0
aI0
aI0
aI0
aI0
aI0
aI0
aI0
aI0
aI0
aI0
aI0
aI1
aI1
aI1
aI0
aI0
aI0
aa(lp2229
I0
aI0
aI0
aI1
aI0
aI0
aI0
aI0
aI0
aI0
aI0
aI1
aI1
aI0
aI0
aI0
aI0
aI0
aI0
aI1
aa(lp2230
I0
aI0
aI0
aI1
aI0
aI0
aI0
aI0
aI0
aI1
aI1
aI0
aI0
aI1
aI0
aI0
aI0
aI0
aI0
aI0
aa(lp2231
I0
aI0
aI0
aI0
aI1
aI1
aI0
aI0
aI0
aI0
aI0
aI0
aI0
aI0
aI1
aI0
aI0
aI0
aI0
aI0
aa(lp2232
I0
aI1
aI0
aI0
aI0
aI0
aI0
aI0
aI0
aI1
aI0
aI0
aI1
aI0
aI0
aI0
aI0
aI0
aI0
aI0
aa(lp2233
I0
aI0
aI0
aI0
aI1
aI0
aI1
aI0
aI0
aI0
aI0
aI1
aI0
aI0
aI0
aI0
aI0
aI1
aI0
aI0
aa(lp2234
I0
aI0
aI1
aI0
aI1
aI0
aI0
aI0
aI0
aI0
aI1
aI0
aI0
aI0
aI0
aI0
aI0
aI0
aI0
aI0
aa(lp2235
I0
aI0
aI0
aI0
aI1
aI0
aI0
aI0
aI1
aI0
aI1
aI1
aI0
aI0
aI0
aI0
aI0
aI0
aI0
aI0
aa(lp2236
I1
aI0
aI0
aI0
aI0
aI0
aI0
aI0
aI0
aI0
aI0
aI1
aI0
aI1
aI1
aI0
aI0
aI0
aI0
aI0
aa(lp2237
I0
aI0
aI1
aI0
aI0
aI0
aI0
aI1
aI0
aI0
aI0
aI1
aI0
aI0
aI0
aI0
aI1
aI0
aI0
aI0
aa(lp2238
I0
aI0
aI0
aI0
aI1
aI0
aI0
aI0
aI0
aI0
aI0
aI1
aI1
aI0
aI1
aI0
aI0
aI0
aI0
aI0
aa(lp2239
I0
aI0
aI0
aI0
aI1
aI0
aI0
aI0
aI0
aI0
aI0
aI0
aI1
aI0
aI0
aI0
aI1
aI0
aI0
aI0
aa(lp2240
I0
aI0
aI1
aI0
aI1
aI0
aI0
aI0
aI1
aI0
aI0
aI1
aI0
aI0
aI0
aI0
aI0
aI0
aI0
aI0
aa(lp2241
I1
aI0
aI0
aI0
aI0
aI0
aI0
aI0
aI0
aI1
aI0
aI0
aI1
aI0
aI1
aI0
aI0
aI0
aI0
aI0
aa(lp2242
I0
aI0
aI0
aI0
aI1
aI0
aI1
aI0
aI0
aI0
aI1
aI0
aI1
aI0
aI0
aI0
aI0
aI0
aI0
aI0
aa(lp2243
I0
aI0
aI0
aI0
aI0
aI0
aI1
aI0
aI0
aI0
aI1
aI0
aI0
aI0
aI0
aI0
aI1
aI0
aI1
aI0
aa(lp2244
I0
aI0
aI0
aI0
aI0
aI0
aI0
aI0
aI0
aI0
aI1
aI1
aI0
aI0
aI0
aI0
aI0
aI0
aI0
aI1
aa(lp2245
I0
aI0
aI0
aI0
aI0
aI0
aI0
aI0
aI0
aI0
aI1
aI0
aI0
aI0
aI1
aI0
aI0
aI1
aI0
aI1
aa(lp2246
I0
aI1
aI0
aI0
aI0
aI0
aI1
aI1
aI0
aI0
aI0
aI0
aI0
aI0
aI0
aI0
aI0
aI0
aI1
aI0
aa(lp2247
I0
aI0
aI0
aI0
aI0
aI1
aI0
aI0
aI0
aI0
aI1
aI0
aI0
aI1
aI1
aI0
aI0
aI0
aI0
aI0
aa(lp2248
I0
aI0
aI0
aI0
aI0
aI0
aI0
aI0
aI1
aI0
aI0
aI0
aI0
aI0
aI0
aI1
aI0
aI0
aI1
aI0
aa(lp2249
I1
aI0
aI0
aI0
aI0
aI0
aI0
aI0
aI1
aI1
aI0
aI0
aI1
aI0
aI0
aI0
aI0
aI0
aI0
aI0
aa(lp2250
I0
aI0
aI1
aI0
aI0
aI0
aI1
aI0
aI0
aI0
aI0
aI0
aI0
aI1
aI0
aI0
aI0
aI0
aI0
aI0
aa(lp2251
I0
aI0
aI0
aI0
aI0
aI1
aI0
aI0
aI0
aI0
aI0
aI0
aI0
aI0
aI1
aI0
aI0
aI0
aI1
aI1
aa(lp2252
I0
aI0
aI0
aI0
aI1
aI0
aI0
aI0
aI0
aI0
aI1
aI0
aI1
aI0
aI0
aI1
aI0
aI0
aI0
aI0
aa(lp2253
I1
aI0
aI0
aI1
aI0
aI0
aI1
aI0
aI0
aI0
aI0
aI0
aI0
aI0
aI0
aI0
aI0
aI1
aI0
aI0
aa(lp2254
I0
aI0
aI0
aI0
aI0
aI0
aI0
aI0
aI0
aI1
aI1
aI0
aI0
aI0
aI0
aI0
aI0
aI1
aI1
aI0
aa(lp2255
I0
aI1
aI1
aI0
aI0
aI0
aI0
aI0
aI0
aI0
aI0
aI0
aI0
aI0
aI0
aI0
aI0
aI0
aI0
aI1
aa(lp2256
I0
aI0
aI1
aI0
aI0
aI0
aI0
aI1
aI0
aI1
aI0
aI0
aI0
aI0
aI0
aI0
aI0
aI1
aI0
aI0
aa(lp2257
I0
aI0
aI1
aI0
aI0
aI0
aI0
aI0
aI0
aI0
aI1
aI0
aI0
aI0
aI0
aI0
aI0
aI1
aI0
aI0
aa(lp2258
I0
aI0
aI0
aI0
aI0
aI0
aI0
aI1
aI0
aI0
aI1
aI0
aI0
aI0
aI0
aI1
aI0
aI0
aI0
aI0
aa(lp2259
I0
aI0
aI0
aI0
aI0
aI0
aI0
aI1
aI0
aI0
aI1
aI1
aI0
aI0
aI0
aI0
aI0
aI0
aI0
aI1
aa(lp2260
I0
aI0
aI0
aI1
aI1
aI0
aI0
aI0
aI0
aI1
aI0
aI0
aI0
aI0
aI0
aI0
aI1
aI0
aI0
aI0
aa(lp2261
I0
aI0
aI0
aI0
aI0
aI0
aI0
aI0
aI0
aI0
aI0
aI1
aI0
aI0
aI1
aI1
aI0
aI0
aI0
aI0
aa(lp2262
I0
aI0
aI0
aI0
aI0
aI0
aI0
aI1
aI0
aI0
aI0
aI0
aI0
aI0
aI0
aI0
aI0
aI0
aI1
aI1
aa(lp2263
I0
aI0
aI0
aI0
aI0
aI0
aI0
aI0
aI0
aI0
aI0
aI0
aI0
aI0
aI0
aI0
aI0
aI1
aI1
aI0
aa(lp2264
I0
aI0
aI0
aI0
aI0
aI0
aI0
aI0
aI0
aI1
aI0
aI0
aI0
aI0
aI0
aI1
aI0
aI1
aI1
aI0
aa(lp2265
I0
aI0
aI0
aI1
aI1
aI0
aI0
aI0
aI0
aI0
aI0
aI0
aI0
aI0
aI0
aI0
aI1
aI0
aI0
aI1
aa(lp2266
I0
aI0
aI0
aI0
aI0
aI0
aI0
aI0
aI0
aI0
aI0
aI1
aI1
aI0
aI0
aI0
aI0
aI1
aI0
aI0
aa(lp2267
I0
aI0
aI1
aI0
aI0
aI0
aI0
aI0
aI0
aI1
aI0
aI0
aI0
aI0
aI0
aI0
aI0
aI1
aI1
aI0
aa(lp2268
I0
aI0
aI0
aI0
aI0
aI1
aI1
aI0
aI0
aI0
aI0
aI0
aI0
aI0
aI0
aI0
aI0
aI1
aI0
aI1
aa(lp2269
I0
aI0
aI0
aI0
aI0
aI0
aI0
aI0
aI0
aI0
aI0
aI1
aI0
aI0
aI0
aI0
aI0
aI1
aI1
aI0
aa(lp2270
I0
aI0
aI0
aI0
aI0
aI0
aI1
aI0
aI0
aI1
aI0
aI0
aI0
aI0
aI1
aI0
aI0
aI0
aI0
aI0
aa(lp2271
I1
aI0
aI0
aI0
aI0
aI0
aI1
aI0
aI0
aI1
aI0
aI0
aI0
aI0
aI0
aI0
aI0
aI0
aI0
aI0
aa(lp2272
I0
aI0
aI0
aI0
aI0
aI1
aI0
aI0
aI0
aI0
aI1
aI0
aI0
aI0
aI0
aI0
aI0
aI0
aI0
aI1
aa(lp2273
I0
aI0
aI1
aI0
aI0
aI0
aI0
aI0
aI0
aI1
aI0
aI0
aI0
aI0
aI0
aI0
aI0
aI0
aI0
aI1
aa(lp2274
I0
aI0
aI0
aI0
aI0
aI0
aI0
aI0
aI0
aI1
aI0
aI0
aI0
aI1
aI0
aI0
aI1
aI1
aI0
aI0
aa(lp2275
I0
aI0
aI0
aI0
aI0
aI0
aI0
aI0
aI0
aI0
aI0
aI0
aI1
aI0
aI0
aI1
aI0
aI0
aI1
aI1
aa(lp2276
I0
aI0
aI1
aI0
aI0
aI1
aI0
aI0
aI0
aI0
aI0
aI0
aI0
aI0
aI0
aI1
aI0
aI0
aI1
aI0
aa(lp2277
I0
aI0
aI1
aI0
aI0
aI0
aI0
aI0
aI0
aI1
aI0
aI0
aI0
aI0
aI0
aI0
aI1
aI0
aI0
aI0
aa(lp2278
I0
aI0
aI0
aI0
aI0
aI1
aI1
aI0
aI0
aI0
aI0
aI1
aI0
aI0
aI0
aI0
aI0
aI0
aI1
aI0
aa(lp2279
I0
aI0
aI1
aI0
aI1
aI0
aI0
aI0
aI0
aI0
aI1
aI1
aI0
aI0
aI0
aI0
aI0
aI0
aI0
aI0
aa(lp2280
I0
aI0
aI0
aI0
aI0
aI1
aI0
aI0
aI0
aI0
aI0
aI0
aI0
aI0
aI1
aI0
aI0
aI0
aI0
aI0
aa(lp2281
I1
aI0
aI0
aI0
aI1
aI0
aI0
aI0
aI1
aI0
aI1
aI0
aI0
aI0
aI0
aI0
aI0
aI0
aI0
aI0
aa(lp2282
I0
aI0
aI0
aI0
aI0
aI0
aI1
aI0
aI0
aI1
aI0
aI0
aI0
aI0
aI1
aI0
aI1
aI0
aI0
aI0
aa(lp2283
I0
aI0
aI0
aI0
aI1
aI0
aI0
aI0
aI1
aI0
aI0
aI0
aI1
aI0
aI0
aI0
aI0
aI0
aI1
aI0
aa(lp2284
I0
aI1
aI0
aI0
aI0
aI0
aI0
aI0
aI0
aI0
aI0
aI1
aI0
aI0
aI0
aI1
aI0
aI0
aI0
aI1
aa(lp2285
I0
aI0
aI0
aI0
aI0
aI1
aI0
aI1
aI0
aI0
aI0
aI0
aI1
aI0
aI0
aI0
aI0
aI0
aI0
aI0
aa(lp2286
I1
aI0
aI1
aI0
aI0
aI0
aI0
aI0
aI0
aI0
aI0
aI0
aI0
aI1
aI0
aI0
aI1
aI0
aI0
aI0
aa(lp2287
I0
aI0
aI0
aI0
aI0
aI1
aI0
aI0
aI0
aI1
aI0
aI0
aI0
aI0
aI0
aI0
aI1
aI0
aI0
aI0
aa(lp2288
I0
aI0
aI0
aI1
aI1
aI0
aI0
aI0
aI0
aI0
aI0
aI0
aI0
aI1
aI0
aI1
aI0
aI0
aI0
aI0
aa(lp2289
I0
aI0
aI0
aI0
aI0
aI0
aI0
aI0
aI1
aI0
aI0
aI1
aI0
aI0
aI1
aI0
aI0
aI1
aI0
aI0
aa(lp2290
I0
aI0
aI0
aI0
aI1
aI0
aI0
aI0
aI0
aI0
aI0
aI1
aI0
aI0
aI1
aI1
aI0
aI0
aI0
aI0
aa(lp2291
I1
aI0
aI0
aI0
aI0
aI1
aI1
aI0
aI0
aI0
aI0
aI0
aI0
aI0
aI0
aI0
aI0
aI0
aI0
aI1
aa(lp2292
I0
aI0
aI0
aI0
aI1
aI1
aI0
aI0
aI0
aI1
aI0
aI0
aI0
aI1
aI0
aI0
aI0
aI0
aI0
aI0
aa(lp2293
I1
aI0
aI0
aI0
aI0
aI0
aI0
aI0
aI0
aI0
aI0
aI0
aI1
aI0
aI0
aI1
aI0
aI0
aI0
aI0
aa(lp2294
I0
aI0
aI0
aI0
aI0
aI0
aI0
aI0
aI0
aI0
aI0
aI1
aI0
aI0
aI1
aI1
aI0
aI0
aI0
aI1
aa(lp2295
I0
aI1
aI0
aI0
aI0
aI1
aI0
aI1
aI0
aI0
aI0
aI0
aI0
aI0
aI0
aI0
aI0
aI1
aI0
aI0
aa(lp2296
I0
aI0
aI0
aI0
aI1
aI0
aI0
aI0
aI0
aI1
aI0
aI0
aI0
aI0
aI0
aI0
aI1
aI0
aI0
aI1
aa(lp2297
I0
aI0
aI1
aI1
aI0
aI0
aI1
aI0
aI0
aI0
aI0
aI1
aI0
aI0
aI0
aI0
aI0
aI0
aI0
aI0
aa(lp2298
I0
aI0
aI0
aI0
aI1
aI0
aI0
aI1
aI0
aI0
aI0
aI0
aI0
aI0
aI0
aI0
aI0
aI1
aI1
aI0
aa(lp2299
I0
aI1
aI0
aI1
aI1
aI0
aI0
aI0
aI1
aI0
aI0
aI0
aI0
aI0
aI0
aI0
aI0
aI0
aI0
aI0
aa(lp2300
I0
aI0
aI0
aI1
aI0
aI0
aI0
aI0
aI0
aI0
aI1
aI0
aI0
aI1
aI0
aI0
aI0
aI0
aI1
aI0
aa(lp2301
I0
aI0
aI0
aI0
aI1
aI1
aI0
aI0
aI0
aI0
aI1
aI1
aI0
aI0
aI0
aI0
aI0
aI0
aI0
aI0
aa(lp2302
I0
aI0
aI0
aI0
aI0
aI0
aI1
aI1
aI0
aI0
aI0
aI1
aI0
aI0
aI0
aI1
aI0
aI0
aI0
aI0
aa(lp2303
I0
aI0
aI1
aI0
aI0
aI0
aI1
aI0
aI0
aI0
aI1
aI0
aI0
aI0
aI0
aI0
aI1
aI0
aI0
aI0
aa(lp2304
I0
aI1
aI0
aI0
aI0
aI0
aI0
aI0
aI0
aI0
aI0
aI0
aI0
aI0
aI0
aI1
aI0
aI0
aI1
aI0
aa(lp2305
I0
aI0
aI0
aI0
aI0
aI0
aI0
aI0
aI0
aI0
aI1
aI0
aI0
aI0
aI1
aI1
aI1
aI0
aI0
aI0
aa(lp2306
I0
aI0
aI0
aI0
aI0
aI0
aI0
aI0
aI1
aI1
aI0
aI0
aI0
aI0
aI1
aI0
aI0
aI0
aI0
aI0
aa(lp2307
I0
aI0
aI0
aI0
aI1
aI0
aI0
aI0
aI0
aI0
aI0
aI0
aI1
aI0
aI1
aI1
aI0
aI0
aI0
aI0
aa(lp2308
I0
aI0
aI0
aI0
aI0
aI0
aI1
aI0
aI1
aI0
aI0
aI0
aI0
aI0
aI1
aI0
aI0
aI0
aI1
aI0
aa(lp2309
I1
aI0
aI0
aI0
aI0
aI1
aI0
aI0
aI0
aI0
aI0
aI0
aI0
aI0
aI0
aI0
aI0
aI0
aI1
aI1
aa(lp2310
I0
aI1
aI1
aI0
aI0
aI0
aI0
aI0
aI1
aI0
aI0
aI0
aI1
aI0
aI0
aI0
aI0
aI0
aI0
aI0
aa(lp2311
I0
aI0
aI0
aI1
aI0
aI1
aI0
aI0
aI0
aI0
aI0
aI0
aI0
aI1
aI1
aI0
aI0
aI0
aI0
aI0
aa(lp2312
I0
aI0
aI1
aI0
aI0
aI1
aI0
aI0
aI0
aI1
aI1
aI0
aI0
aI0
aI0
aI0
aI0
aI0
aI0
aI0
aa(lp2313
I0
aI0
aI0
aI0
aI1
aI0
aI1
aI0
aI0
aI0
aI0
aI0
aI1
aI0
aI0
aI0
aI0
aI0
aI0
aI1
aa(lp2314
I0
aI1
aI1
aI0
aI0
aI0
aI0
aI0
aI0
aI0
aI0
aI0
aI0
aI0
aI0
aI0
aI0
aI1
aI0
aI0
aa(lp2315
I0
aI0
aI0
aI1
aI0
aI0
aI0
aI0
aI0
aI1
aI1
aI0
aI1
aI0
aI0
aI0
aI0
aI0
aI0
aI0
aa(lp2316
I0
aI0
aI0
aI0
aI1
aI0
aI0
aI0
aI1
aI1
aI0
aI0
aI0
aI0
aI1
aI0
aI0
aI0
aI0
aI0
aa(lp2317
I0
aI0
aI0
aI0
aI0
aI1
aI1
aI0
aI0
aI0
aI0
aI0
aI0
aI0
aI0
aI0
aI0
aI0
aI0
aI1
aa(lp2318
I0
aI1
aI0
aI0
aI0
aI0
aI0
aI0
aI0
aI1
aI0
aI1
aI0
aI0
aI0
aI0
aI0
aI0
aI0
aI1
aa(lp2319
I0
aI0
aI0
aI0
aI1
aI0
aI0
aI0
aI0
aI0
aI0
aI0
aI1
aI0
aI0
aI1
aI0
aI0
aI0
aI0
aa(lp2320
I0
aI0
aI0
aI0
aI0
aI0
aI0
aI0
aI0
aI1
aI0
aI1
aI0
aI0
aI0
aI1
aI0
aI0
aI1
aI0
aa(lp2321
I0
aI0
aI1
aI0
aI0
aI0
aI0
aI0
aI0
aI0
aI0
aI0
aI0
aI0
aI0
aI0
aI0
aI1
aI1
aI1
aa(lp2322
I0
aI0
aI1
aI0
aI0
aI0
aI0
aI0
aI0
aI0
aI0
aI1
aI0
aI0
aI0
aI1
aI0
aI0
aI0
aI1
aa(lp2323
I0
aI0
aI0
aI0
aI1
aI0
aI0
aI1
aI0
aI0
aI0
aI0
aI0
aI0
aI1
aI1
aI0
aI0
aI0
aI0
aa(lp2324
I1
aI0
aI0
aI0
aI0
aI0
aI0
aI0
aI0
aI0
aI0
aI1
aI1
aI0
aI0
aI0
aI0
aI0
aI0
aI1
aa(lp2325
I0
aI0
aI0
aI0
aI0
aI0
aI0
aI1
aI0
aI0
aI0
aI1
aI0
aI1
aI0
aI0
aI0
aI1
aI0
aI0
aa(lp2326
I0
aI0
aI0
aI0
aI0
aI0
aI0
aI0
aI1
aI0
aI1
aI0
aI0
aI0
aI0
aI0
aI1
aI1
aI0
aI0
aa(lp2327
I0
aI0
aI0
aI0
aI1
aI0
aI0
aI1
aI0
aI1
aI0
aI0
aI0
aI0
aI0
aI0
aI1
aI0
aI0
aI0
aa(lp2328
I0
aI0
aI1
aI0
aI0
aI0
aI0
aI0
aI0
aI0
aI0
aI0
aI0
aI0
aI0
aI0
aI0
aI0
aI1
aI1
aa(lp2329
I0
aI0
aI0
aI0
aI0
aI0
aI0
aI0
aI0
aI0
aI1
aI0
aI0
aI0
aI0
aI0
aI0
aI1
aI1
aI1
aa(lp2330
I0
aI0
aI0
aI0
aI0
aI0
aI1
aI0
aI0
aI0
aI0
aI0
aI1
aI1
aI0
aI0
aI1
aI0
aI0
aI0
aa(lp2331
I1
aI1
aI0
aI0
aI0
aI0
aI1
aI0
aI1
aI0
aI0
aI0
aI0
aI0
aI0
aI0
aI0
aI0
aI0
aI0
aa(lp2332
I0
aI0
aI0
aI0
aI0
aI0
aI0
aI0
aI0
aI0
aI1
aI0
aI0
aI0
aI0
aI1
aI1
aI0
aI0
aI1
aa(lp2333
I1
aI0
aI0
aI0
aI0
aI0
aI0
aI0
aI1
aI0
aI0
aI1
aI0
aI0
aI1
aI0
aI0
aI0
aI0
aI0
aa(lp2334
I0
aI0
aI1
aI0
aI0
aI0
aI0
aI0
aI0
aI0
aI0
aI0
aI0
aI1
aI0
aI1
aI1
aI0
aI0
aI0
aa(lp2335
I0
aI0
aI0
aI0
aI0
aI0
aI0
aI1
aI1
aI0
aI0
aI1
aI0
aI0
aI0
aI0
aI0
aI0
aI0
aI0
aa(lp2336
I0
aI0
aI0
aI0
aI0
aI0
aI0
aI0
aI0
aI0
aI0
aI0
aI0
aI1
aI0
aI0
aI0
aI1
aI1
aI1
aa(lp2337
I0
aI1
aI0
aI0
aI0
aI0
aI1
aI0
aI0
aI0
aI0
aI0
aI1
aI0
aI0
aI0
aI1
aI0
aI0
aI0
aa(lp2338
I0
aI0
aI0
aI0
aI0
aI0
aI0
aI0
aI0
aI0
aI1
aI0
aI0
aI1
aI0
aI0
aI0
aI0
aI1
aI0
aa(lp2339
I1
aI1
aI0
aI0
aI0
aI0
aI0
aI1
aI0
aI0
aI0
aI0
aI0
aI0
aI1
aI0
aI0
aI0
aI0
aI0
aa(lp2340
I0
aI0
aI0
aI0
aI1
aI0
aI1
aI1
aI0
aI0
aI0
aI0
aI0
aI0
aI0
aI0
aI0
aI0
aI1
aI0
aa(lp2341
I0
aI0
aI0
aI0
aI1
aI0
aI0
aI0
aI1
aI0
aI1
aI0
aI0
aI0
aI1
aI0
aI0
aI0
aI0
aI0
aa(lp2342
I0
aI0
aI0
aI0
aI0
aI1
aI0
aI0
aI1
aI1
aI0
aI0
aI0
aI0
aI0
aI0
aI0
aI0
aI1
aI0
aa(lp2343
I0
aI0
aI0
aI0
aI0
aI0
aI0
aI0
aI0
aI1
aI0
aI1
aI0
aI0
aI0
aI1
aI1
aI0
aI0
aI0
aa(lp2344
I0
aI0
aI0
aI0
aI1
aI1
aI0
aI0
aI0
aI0
aI0
aI0
aI0
aI0
aI0
aI1
aI0
aI0
aI1
aI0
aa(lp2345
I0
aI0
aI0
aI1
aI0
aI0
aI0
aI0
aI0
aI0
aI0
aI0
aI0
aI0
aI0
aI0
aI1
aI1
aI0
aI0
aa(lp2346
I1
aI1
aI0
aI1
aI0
aI0
aI1
aI0
aI0
aI0
aI0
aI0
aI0
aI0
aI0
aI0
aI0
aI0
aI0
aI0
aa(lp2347
I0
aI0
aI0
aI0
aI0
aI0
aI1
aI0
aI0
aI0
aI0
aI0
aI0
aI0
aI1
aI1
aI1
aI0
aI0
aI0
aa(lp2348
I0
aI1
aI1
aI0
aI0
aI0
aI0
aI0
aI1
aI0
aI0
aI0
aI0
aI0
aI0
aI0
aI0
aI0
aI0
aI0
aa(lp2349
I0
aI0
aI0
aI0
aI0
aI0
aI0
aI0
aI0
aI0
aI0
aI0
aI0
aI1
aI1
aI0
aI1
aI0
aI0
aI1
aa(lp2350
I0
aI0
aI0
aI0
aI0
aI0
aI1
aI0
aI1
aI0
aI0
aI0
aI0
aI0
aI1
aI0
aI1
aI0
aI0
aI0
aa(lp2351
I0
aI1
aI0
aI0
aI0
aI0
aI0
aI0
aI0
aI0
aI1
aI0
aI1
aI0
aI0
aI0
aI1
aI0
aI0
aI0
aa(lp2352
I1
aI0
aI0
aI0
aI0
aI0
aI1
aI0
aI1
aI0
aI0
aI0
aI0
aI0
aI0
aI0
aI0
aI0
aI0
aI1
aa(lp2353
I0
aI0
aI0
aI1
aI1
aI0
aI0
aI0
aI0
aI0
aI0
aI0
aI0
aI0
aI0
aI1
aI1
aI0
aI0
aI0
aa(lp2354
I0
aI0
aI1
aI0
aI0
aI1
aI0
aI0
aI0
aI0
aI0
aI0
aI0
aI0
aI0
aI0
aI0
aI0
aI1
aI1
aa(lp2355
I0
aI1
aI0
aI0
aI0
aI0
aI0
aI0
aI1
aI0
aI0
aI0
aI0
aI0
aI0
aI0
aI1
aI0
aI0
aI0
aa(lp2356
I0
aI1
aI0
aI0
aI0
aI0
aI0
aI1
aI0
aI1
aI0
aI0
aI0
aI1
aI0
aI0
aI0
aI0
aI0
aI0
aa(lp2357
I0
aI0
aI0
aI0
aI1
aI0
aI0
aI0
aI0
aI0
aI0
aI0
aI0
aI0
aI0
aI1
aI0
aI0
aI0
aI1
aa(lp2358
I0
aI1
aI1
aI0
aI0
aI0
aI0
aI0
aI0
aI1
aI0
aI0
aI0
aI0
aI0
aI0
aI0
aI0
aI1
aI0
aa(lp2359
I1
aI0
aI0
aI0
aI0
aI0
aI0
aI0
aI0
aI0
aI1
aI0
aI0
aI0
aI0
aI0
aI0
aI0
aI1
aI1
aa(lp2360
I0
aI1
aI0
aI0
aI0
aI0
aI0
aI0
aI0
aI0
aI0
aI1
aI0
aI1
aI0
aI1
aI0
aI0
aI0
aI0
aa(lp2361
I0
aI0
aI0
aI0
aI1
aI0
aI0
aI1
aI0
aI0
aI0
aI0
aI0
aI0
aI0
aI0
aI1
aI0
aI1
aI0
aa(lp2362
I0
aI0
aI1
aI1
aI0
aI1
aI0
aI0
aI0
aI0
aI0
aI0
aI0
aI0
aI0
aI0
aI0
aI0
aI1
aI0
aa(lp2363
I0
aI1
aI0
aI1
aI0
aI0
aI0
aI0
aI1
aI0
aI1
aI0
aI0
aI0
aI0
aI0
aI0
aI0
aI0
aI0
aa(lp2364
I0
aI0
aI0
aI0
aI1
aI1
aI0
aI0
aI0
aI0
aI0
aI1
aI0
aI0
aI0
aI0
aI0
aI0
aI1
aI0
aa(lp2365
I1
aI0
aI1
aI0
aI0
aI0
aI0
aI0
aI0
aI0
aI0
aI1
aI0
aI1
aI0
aI0
aI0
aI0
aI0
aI0
aa(lp2366
I0
aI0
aI0
aI0
aI0
aI0
aI0
aI0
aI0
aI1
aI0
aI0
aI1
aI0
aI1
aI0
aI1
aI0
aI0
aI0
aa(lp2367
I0
aI0
aI0
aI0
aI0
aI1
aI0
aI0
aI0
aI0
aI0
aI0
aI0
aI1
aI0
aI0
aI0
aI1
aI1
aI0
aa(lp2368
I0
aI0
aI0
aI0
aI0
aI0
aI0
aI1
aI0
aI0
aI0
aI1
aI0
aI0
aI0
aI0
aI1
aI0
aI0
aI1
aa(lp2369
I0
aI0
aI0
aI0
aI0
aI0
aI0
aI0
aI0
aI0
aI1
aI0
aI1
aI1
aI0
aI0
aI0
aI1
aI0
aI0
aa(lp2370
I0
aI0
aI0
aI0
aI0
aI0
aI0
aI1
aI1
aI0
aI0
aI0
aI0
aI0
aI0
aI0
aI0
aI1
aI0
aI1
aa(lp2371
I1
aI1
aI0
aI0
aI0
aI0
aI0
aI1
aI0
aI0
aI0
aI0
aI0
aI0
aI0
aI1
aI0
aI0
aI0
aI0
aa(lp2372
I0
aI0
aI0
aI0
aI0
aI0
aI1
aI0
aI1
aI0
aI1
aI0
aI0
aI0
aI1
aI0
aI0
aI0
aI0
aI0
aa(lp2373
I0
aI0
aI0
aI0
aI0
aI0
aI0
aI0
aI0
aI0
aI0
aI0
aI0
aI1
aI1
aI0
aI1
aI0
aI0
aI1
aa(lp2374
I1
aI0
aI0
aI0
aI0
aI0
aI0
aI0
aI0
aI0
aI1
aI0
aI1
aI1
aI0
aI0
aI0
aI0
aI0
aI0
aa(lp2375
I0
aI0
aI0
aI0
aI1
aI0
aI0
aI0
aI1
aI0
aI0
aI1
aI0
aI0
aI0
aI0
aI0
aI0
aI1
aI0
aa(lp2376
I1
aI0
aI0
aI0
aI0
aI1
aI0
aI0
aI0
aI0
aI0
aI0
aI0
aI0
aI1
aI0
aI0
aI0
aI1
aI0
aa(lp2377
I0
aI1
aI0
aI0
aI1
aI0
aI0
aI0
aI0
aI0
aI0
aI0
aI0
aI1
aI0
aI0
aI0
aI0
aI0
aI0
aa(lp2378
I0
aI1
aI0
aI1
aI0
aI0
aI0
aI1
aI0
aI0
aI0
aI0
aI0
aI0
aI0
aI0
aI0
aI0
aI1
aI0
aa(lp2379
I0
aI1
aI0
aI0
aI0
aI0
aI0
aI0
aI0
aI0
aI0
aI0
aI0
aI0
aI0
aI0
aI1
aI1
aI1
aI0
aa(lp2380
I0
aI0
aI0
aI0
aI1
aI0
aI0
aI1
aI0
aI0
aI1
aI1
aI0
aI0
aI0
aI0
aI0
aI0
aI0
aI0
aa(lp2381
I0
aI0
aI0
aI0
aI0
aI0
aI1
aI1
aI0
aI0
aI1
aI0
aI0
aI0
aI0
aI0
aI0
aI0
aI0
aI0
aa(lp2382
I1
aI1
aI0
aI0
aI0
aI0
aI0
aI1
aI0
aI0
aI0
aI0
aI0
aI0
aI0
aI0
aI0
aI0
aI0
aI1
aa(lp2383
I1
aI0
aI0
aI0
aI1
aI0
aI0
aI0
aI1
aI1
aI0
aI0
aI0
aI0
aI0
aI0
aI0
aI0
aI0
aI0
aa(lp2384
I0
aI0
aI0
aI0
aI0
aI0
aI0
aI0
aI0
aI0
aI1
aI1
aI0
aI1
aI0
aI0
aI0
aI0
aI0
aI0
aa(lp2385
I0
aI1
aI0
aI0
aI0
aI0
aI0
aI0
aI0
aI0
aI0
aI0
aI1
aI0
aI1
aI0
aI0
aI0
aI0
aI0
aa(lp2386
I1
aI0
aI1
aI0
aI0
aI0
aI0
aI1
aI0
aI1
aI0
aI0
aI0
aI0
aI0
aI0
aI0
aI0
aI0
aI0
aa(lp2387
I0
aI0
aI0
aI0
aI0
aI0
aI0
aI1
aI0
aI0
aI0
aI1
aI0
aI1
aI0
aI0
aI0
aI0
aI0
aI1
aa(lp2388
I0
aI0
aI0
aI0
aI1
aI0
aI0
aI0
aI0
aI0
aI0
aI0
aI1
aI0
aI1
aI1
aI0
aI0
aI0
aI0
aa(lp2389
I0
aI0
aI1
aI0
aI0
aI0
aI0
aI1
aI0
aI0
aI1
aI0
aI0
aI0
aI1
aI0
aI0
aI0
aI0
aI0
aa(lp2390
I0
aI0
aI1
aI0
aI0
aI1
aI0
aI0
aI0
aI1
aI1
aI0
aI0
aI0
aI0
aI0
aI0
aI0
aI0
aI0
aa(lp2391
I0
aI0
aI0
aI0
aI0
aI1
aI0
aI0
aI0
aI0
aI0
aI0
aI0
aI1
aI0
aI0
aI0
aI1
aI0
aI0
aa(lp2392
I0
aI0
aI1
aI1
aI0
aI0
aI0
aI0
aI0
aI0
aI0
aI0
aI0
aI1
aI0
aI0
aI0
aI1
aI0
aI0
aa(lp2393
I0
aI0
aI1
aI0
aI0
aI0
aI0
aI0
aI0
aI1
aI0
aI0
aI0
aI0
aI0
aI0
aI0
aI0
aI1
aI1
aa(lp2394
I0
aI0
aI0
aI1
aI0
aI0
aI1
aI0
aI0
aI0
aI0
aI0
aI0
aI0
aI0
aI0
aI0
aI0
aI0
aI1
aa(lp2395
I0
aI1
aI0
aI0
aI0
aI0
aI0
aI0
aI0
aI0
aI0
aI0
aI0
aI0
aI0
aI1
aI0
aI1
aI0
aI1
aa(lp2396
I1
aI0
aI0
aI0
aI0
aI1
aI0
aI1
aI0
aI0
aI0
aI0
aI0
aI0
aI0
aI0
aI0
aI0
aI1
aI0
aa(lp2397
I0
aI0
aI1
aI0
aI0
aI0
aI1
aI0
aI0
aI0
aI0
aI0
aI1
aI0
aI0
aI0
aI0
aI0
aI1
aI0
aa(lp2398
I0
aI1
aI0
aI0
aI0
aI0
aI0
aI0
aI0
aI0
aI1
aI1
aI0
aI0
aI0
aI0
aI0
aI0
aI0
aI1
aa(lp2399
I0
aI1
aI1
aI0
aI0
aI0
aI0
aI0
aI0
aI0
aI0
aI0
aI1
aI0
aI0
aI0
aI1
aI0
aI0
aI0
aa(lp2400
I0
aI0
aI0
aI0
aI1
aI0
aI0
aI0
aI0
aI1
aI0
aI1
aI0
aI0
aI1
aI0
aI0
aI0
aI0
aI0
aa(lp2401
I1
aI0
aI0
aI0
aI0
aI0
aI0
aI0
aI0
aI0
aI0
aI0
aI0
aI0
aI1
aI0
aI0
aI1
aI0
aI0
aa(lp2402
I0
aI1
aI0
aI0
aI0
aI0
aI1
aI0
aI0
aI0
aI0
aI1
aI0
aI0
aI1
aI0
aI0
aI0
aI0
aI0
aa(lp2403
I0
aI1
aI0
aI0
aI0
aI1
aI0
aI0
aI1
aI0
aI0
aI1
aI0
aI0
aI0
aI0
aI0
aI0
aI0
aI0
aa(lp2404
I0
aI0
aI1
aI0
aI0
aI0
aI0
aI0
aI1
aI0
aI0
aI0
aI0
aI0
aI0
aI0
aI1
aI0
aI1
aI0
aa(lp2405
I0
aI0
aI0
aI0
aI0
aI0
aI0
aI0
aI0
aI0
aI0
aI0
aI0
aI0
aI1
aI0
aI0
aI0
aI1
aI1
aa(lp2406
I0
aI0
aI0
aI0
aI0
aI0
aI0
aI0
aI1
aI0
aI0
aI0
aI1
aI0
aI0
aI0
aI1
aI0
aI1
aI0
aa(lp2407
I0
aI0
aI0
aI0
aI1
aI0
aI0
aI0
aI1
aI1
aI0
aI0
aI0
aI1
aI0
aI0
aI0
aI0
aI0
aI0
aa(lp2408
I1
aI0
aI0
aI1
aI1
aI0
aI0
aI0
aI0
aI0
aI0
aI0
aI0
aI0
aI0
aI0
aI0
aI0
aI1
aI0
aa(lp2409
I0
aI1
aI0
aI0
aI0
aI1
aI0
aI0
aI0
aI1
aI0
aI0
aI0
aI0
aI1
aI0
aI0
aI0
aI0
aI0
aa(lp2410
I0
aI0
aI0
aI0
aI0
aI0
aI0
aI0
aI0
aI0
aI1
aI0
aI1
aI0
aI1
aI0
aI1
aI0
aI0
aI0
aa(lp2411
I1
aI0
aI0
aI0
aI0
aI0
aI0
aI0
aI0
aI0
aI0
aI1
aI0
aI1
aI0
aI0
aI0
aI0
aI0
aI1
aa(lp2412
I1
aI0
aI0
aI0
aI0
aI0
aI0
aI0
aI0
aI0
aI0
aI0
aI0
aI1
aI0
aI1
aI0
aI1
aI0
aI0
aa(lp2413
I0
aI0
aI1
aI1
aI1
aI1
aI0
aI0
aI0
aI0
aI0
aI0
aI0
aI0
aI0
aI0
aI0
aI0
aI0
aI0
aa(lp2414
I0
aI0
aI0
aI1
aI1
aI0
aI0
aI1
aI0
aI0
aI0
aI0
aI0
aI0
aI1
aI0
aI0
aI0
aI0
aI0
aa(lp2415
I1
aI0
aI0
aI0
aI0
aI0
aI0
aI0
aI0
aI1
aI1
aI0
aI0
aI0
aI1
aI0
aI0
aI0
aI0
aI0
aa(lp2416
I0
aI0
aI0
aI0
aI0
aI1
aI0
aI0
aI0
aI0
aI0
aI1
aI1
aI0
aI0
aI0
aI0
aI0
aI0
aI1
aa(lp2417
I0
aI1
aI0
aI0
aI0
aI1
aI0
aI0
aI1
aI0
aI0
aI0
aI0
aI0
aI0
aI0
aI1
aI0
aI0
aI0
aa(lp2418
I0
aI0
aI1
aI0
aI0
aI0
aI0
aI1
aI0
aI0
aI0
aI0
aI0
aI0
aI0
aI0
aI0
aI0
aI1
aI1
aa(lp2419
I0
aI1
aI0
aI0
aI0
aI1
aI0
aI1
aI0
aI0
aI0
aI0
aI0
aI0
aI0
aI0
aI0
aI0
aI0
aI0
aa(lp2420
I0
aI0
aI0
aI0
aI0
aI0
aI0
aI0
aI0
aI0
aI0
aI0
aI1
aI1
aI0
aI0
aI0
aI1
aI0
aI0
aa(lp2421
I0
aI0
aI0
aI0
aI0
aI0
aI1
aI0
aI0
aI1
aI0
aI0
aI0
aI0
aI1
aI1
aI0
aI0
aI0
aI0
aa(lp2422
I0
aI0
aI0
aI0
aI0
aI0
aI0
aI0
aI0
aI0
aI1
aI0
aI0
aI1
aI1
aI0
aI0
aI0
aI0
aI1
aa(lp2423
I0
aI1
aI0
aI1
aI0
aI1
aI0
aI0
aI0
aI0
aI0
aI0
aI0
aI0
aI0
aI0
aI1
aI0
aI0
aI0
aa(lp2424
I0
aI0
aI1
aI0
aI1
aI0
aI0
aI0
aI1
aI0
aI0
aI0
aI1
aI0
aI0
aI0
aI0
aI0
aI0
aI0
aa(lp2425
I0
aI1
aI0
aI0
aI0
aI0
aI1
aI0
aI1
aI0
aI0
aI0
aI0
aI0
aI0
aI0
aI0
aI0
aI1
aI0
aa(lp2426
I0
aI0
aI1
aI0
aI0
aI1
aI0
aI0
aI0
aI0
aI0
aI0
aI1
aI0
aI1
aI0
aI0
aI0
aI0
aI0
aa(lp2427
I0
aI1
aI1
aI0
aI0
aI0
aI0
aI0
aI0
aI0
aI1
aI0
aI0
aI0
aI0
aI0
aI0
aI0
aI1
aI0
aa(lp2428
I0
aI0
aI0
aI0
aI0
aI0
aI0
aI0
aI0
aI1
aI1
aI0
aI0
aI0
aI0
aI0
aI1
aI0
aI0
aI1
aa(lp2429
I0
aI0
aI0
aI0
aI1
aI0
aI1
aI0
aI0
aI0
aI0
aI0
aI1
aI1
aI0
aI0
aI0
aI0
aI0
aI0
aa(lp2430
I0
aI0
aI0
aI0
aI1
aI0
aI0
aI1
aI0
aI0
aI0
aI0
aI0
aI0
aI1
aI0
aI0
aI0
aI0
aI0
aa(lp2431
I1
aI0
aI0
aI0
aI0
aI0
aI1
aI0
aI0
aI0
aI0
aI0
aI0
aI0
aI1
aI0
aI0
aI0
aI0
aI0
aa(lp2432
I0
aI0
aI0
aI0
aI0
aI0
aI1
aI0
aI0
aI0
aI0
aI0
aI1
aI0
aI0
aI0
aI0
aI0
aI1
aI0
aa(lp2433
I0
aI0
aI1
aI1
aI0
aI1
aI0
aI0
aI0
aI0
aI0
aI0
aI1
aI0
aI0
aI0
aI0
aI0
aI0
aI0
aa(lp2434
I0
aI0
aI0
aI0
aI0
aI0
aI0
aI1
aI1
aI0
aI0
aI0
aI0
aI0
aI0
aI0
aI1
aI0
aI0
aI0
aa(lp2435
I0
aI0
aI0
aI0
aI0
aI0
aI1
aI1
aI0
aI0
aI0
aI0
aI0
aI0
aI0
aI0
aI1
aI0
aI0
aI0
aa(lp2436
I0
aI0
aI0
aI0
aI0
aI0
aI0
aI0
aI0
aI0
aI0
aI1
aI1
aI1
aI0
aI0
aI0
aI1
aI0
aI0
aa(lp2437
I0
aI1
aI0
aI0
aI1
aI0
aI0
aI0
aI0
aI0
aI0
aI0
aI1
aI0
aI0
aI0
aI0
aI0
aI0
aI0
aa(lp2438
I0
aI0
aI0
aI0
aI1
aI0
aI0
aI0
aI1
aI1
aI0
aI0
aI0
aI0
aI0
aI1
aI0
aI0
aI0
aI0
aa(lp2439
I0
aI0
aI0
aI0
aI0
aI0
aI0
aI0
aI0
aI0
aI1
aI0
aI0
aI0
aI0
aI1
aI1
aI0
aI0
aI0
aa(lp2440
I0
aI0
aI0
aI1
aI0
aI0
aI0
aI0
aI0
aI0
aI0
aI0
aI0
aI1
aI0
aI0
aI0
aI0
aI1
aI1
aa(lp2441
I0
aI0
aI0
aI1
aI0
aI0
aI1
aI0
aI0
aI0
aI0
aI0
aI1
aI0
aI0
aI0
aI0
aI1
aI0
aI0
aa(lp2442
I1
aI0
aI0
aI0
aI0
aI1
aI0
aI0
aI0
aI0
aI0
aI0
aI0
aI0
aI0
aI0
aI0
aI0
aI1
aI1
aa(lp2443
I0
aI0
aI0
aI0
aI0
aI0
aI0
aI1
aI0
aI1
aI0
aI0
aI0
aI0
aI0
aI1
aI0
aI1
aI0
aI0
aa(lp2444
I0
aI0
aI1
aI0
aI0
aI0
aI0
aI0
aI0
aI0
aI0
aI0
aI0
aI0
aI0
aI0
aI0
aI0
aI0
aI1
aa(lp2445
I0
aI0
aI1
aI0
aI0
aI0
aI0
aI0
aI0
aI0
aI0
aI0
aI0
aI0
aI0
aI0
aI1
aI0
aI1
aI1
aa(lp2446
I0
aI0
aI0
aI0
aI1
aI0
aI0
aI1
aI0
aI0
aI0
aI0
aI0
aI0
aI1
aI1
aI0
aI0
aI0
aI0
aa(lp2447
I1
aI0
aI1
aI0
aI0
aI0
aI0
aI0
aI1
aI0
aI0
aI0
aI0
aI0
aI0
aI0
aI0
aI1
aI0
aI0
aa(lp2448
I0
aI0
aI0
aI1
aI0
aI0
aI1
aI0
aI1
aI0
aI0
aI0
aI0
aI0
aI0
aI0
aI0
aI0
aI1
aI0
aa(lp2449
I0
aI1
aI1
aI1
aI0
aI0
aI0
aI0
aI0
aI0
aI0
aI0
aI0
aI0
aI0
aI0
aI0
aI1
aI0
aI0
aa(lp2450
I1
aI0
aI0
aI0
aI1
aI0
aI0
aI0
aI0
aI0
aI0
aI0
aI0
aI0
aI1
aI0
aI0
aI0
aI0
aI0
aa(lp2451
I0
aI0
aI0
aI1
aI1
aI0
aI0
aI0
aI0
aI0
aI0
aI0
aI1
aI0
aI0
aI0
aI0
aI0
aI0
aI1
aa(lp2452
I1
aI0
aI0
aI0
aI1
aI1
aI0
aI0
aI0
aI0
aI0
aI0
aI0
aI0
aI0
aI0
aI0
aI0
aI0
aI1
aa(lp2453
I0
aI1
aI0
aI1
aI0
aI1
aI1
aI0
aI0
aI0
aI0
aI0
aI0
aI0
aI0
aI0
aI0
aI0
aI0
aI0
aa(lp2454
I1
aI0
aI0
aI0
aI0
aI0
aI0
aI0
aI0
aI0
aI1
aI0
aI0
aI0
aI0
aI0
aI1
aI0
aI1
aI0
aa(lp2455
I0
aI0
aI0
aI1
aI0
aI0
aI0
aI0
aI0
aI1
aI0
aI0
aI1
aI0
aI0
aI1
aI0
aI0
aI0
aI0
aa(lp2456
I1
aI1
aI0
aI0
aI0
aI0
aI0
aI1
aI0
aI0
aI0
aI0
aI1
aI0
aI0
aI0
aI0
aI0
aI0
aI0
aa(lp2457
I0
aI0
aI1
aI0
aI0
aI0
aI0
aI1
aI0
aI0
aI0
aI1
aI0
aI0
aI0
aI0
aI0
aI0
aI0
aI0
aa(lp2458
I0
aI1
aI0
aI0
aI0
aI0
aI0
aI0
aI1
aI0
aI0
aI1
aI0
aI0
aI0
aI0
aI0
aI0
aI0
aI1
aa(lp2459
I0
aI0
aI0
aI0
aI1
aI1
aI0
aI0
aI0
aI0
aI0
aI0
aI1
aI0
aI0
aI0
aI1
aI0
aI0
aI0
aa(lp2460
I0
aI0
aI0
aI0
aI0
aI0
aI0
aI0
aI0
aI1
aI0
aI0
aI0
aI1
aI0
aI0
aI1
aI0
aI0
aI1
aa(lp2461
I0
aI0
aI0
aI0
aI0
aI0
aI1
aI0
aI0
aI1
aI0
aI0
aI0
aI1
aI0
aI0
aI0
aI0
aI1
aI0
aa(lp2462
I0
aI1
aI0
aI0
aI0
aI0
aI1
aI0
aI0
aI0
aI0
aI0
aI0
aI0
aI0
aI0
aI0
aI0
aI0
aI1
aa(lp2463
I0
aI0
aI0
aI0
aI0
aI1
aI0
aI0
aI0
aI1
aI1
aI0
aI0
aI0
aI1
aI0
aI0
aI0
aI0
aI0
aa(lp2464
I1
aI0
aI0
aI0
aI0
aI0
aI0
aI0
aI0
aI0
aI1
aI0
aI0
aI0
aI0
aI1
aI0
aI0
aI0
aI0
aa(lp2465
I0
aI0
aI0
aI0
aI0
aI1
aI1
aI0
aI0
aI0
aI1
aI0
aI0
aI0
aI0
aI0
aI0
aI0
aI1
aI0
aa(lp2466
I0
aI1
aI0
aI0
aI0
aI0
aI0
aI1
aI0
aI0
aI0
aI0
aI0
aI0
aI0
aI0
aI0
aI0
aI1
aI0
aa(lp2467
I1
aI0
aI0
aI0
aI1
aI0
aI0
aI0
aI1
aI0
aI0
aI0
aI0
aI0
aI0
aI0
aI1
aI0
aI0
aI0
aa(lp2468
I0
aI0
aI0
aI0
aI0
aI1
aI0
aI0
aI1
aI0
aI0
aI1
aI0
aI1
aI0
aI0
aI0
aI0
aI0
aI0
aa(lp2469
I0
aI1
aI0
aI0
aI0
aI0
aI0
aI0
aI1
aI1
aI0
aI0
aI0
aI0
aI0
aI0
aI0
aI1
aI0
aI0
aa(lp2470
I0
aI1
aI0
aI0
aI0
aI1
aI0
aI0
aI0
aI0
aI0
aI0
aI0
aI0
aI0
aI1
aI0
aI1
aI0
aI0
aa(lp2471
I0
aI0
aI0
aI1
aI0
aI1
aI0
aI0
aI0
aI0
aI0
aI0
aI1
aI0
aI0
aI0
aI1
aI0
aI0
aI0
aa(lp2472
I0
aI0
aI1
aI1
aI0
aI0
aI0
aI0
aI0
aI0
aI0
aI0
aI0
aI1
aI0
aI0
aI1
aI0
aI0
aI0
aa(lp2473
I0
aI0
aI1
aI0
aI0
aI0
aI0
aI0
aI1
aI0
aI0
aI0
aI1
aI0
aI0
aI0
aI0
aI0
aI0
aI0
aa(lp2474
I0
aI0
aI0
aI0
aI0
aI1
aI0
aI0
aI0
aI1
aI0
aI0
aI0
aI1
aI0
aI0
aI0
aI0
aI0
aI0
aa(lp2475
I1
aI0
aI0
aI0
aI0
aI0
aI0
aI0
aI0
aI0
aI0
aI0
aI1
aI1
aI0
aI0
aI0
aI0
aI0
aI0
aa(lp2476
I1
aI0
aI0
aI0
aI0
aI1
aI0
aI0
aI0
aI0
aI0
aI0
aI1
aI0
aI0
aI0
aI0
aI0
aI0
aI0
aa(lp2477
I1
aI0
aI0
aI0
aI1
aI0
aI0
aI1
aI0
aI0
aI0
aI0
aI1
aI0
aI0
aI0
aI0
aI0
aI0
aI0
aa(lp2478
I1
aI1
aI1
aI0
aI0
aI0
aI0
aI0
aI1
aI0
aI0
aI0
aI0
aI0
aI0
aI0
aI0
aI0
aI0
aI0
aa(lp2479
I0
aI1
aI0
aI0
aI1
aI0
aI1
aI0
aI0
aI0
aI1
aI0
aI0
aI0
aI0
aI0
aI0
aI0
aI0
aI0
aa(lp2480
I1
aI0
aI0
aI0
aI0
aI0
aI1
aI0
aI0
aI0
aI0
aI1
aI0
aI1
aI0
aI0
aI0
aI0
aI0
aI0
aa(lp2481
I1
aI0
aI0
aI1
aI1
aI0
aI1
aI0
aI0
aI0
aI0
aI0
aI0
aI0
aI0
aI0
aI0
aI0
aI0
aI0
aa(lp2482
I0
aI0
aI0
aI0
aI0
aI0
aI0
aI0
aI0
aI0
aI1
aI1
aI0
aI0
aI0
aI0
aI1
aI0
aI0
aI0
aa(lp2483
I0
aI0
aI1
aI1
aI0
aI0
aI0
aI0
aI0
aI0
aI0
aI0
aI1
aI0
aI1
aI0
aI0
aI0
aI0
aI0
aa(lp2484
I1
aI1
aI0
aI0
aI0
aI0
aI0
aI0
aI0
aI0
aI0
aI1
aI0
aI0
aI0
aI1
aI0
aI0
aI0
aI0
aa(lp2485
I1
aI0
aI0
aI0
aI0
aI0
aI0
aI0
aI0
aI1
aI1
aI0
aI0
aI0
aI0
aI1
aI0
aI0
aI0
aI0
aa(lp2486
I0
aI0
aI0
aI0
aI0
aI0
aI0
aI0
aI0
aI0
aI0
aI1
aI0
aI0
aI1
aI0
aI0
aI1
aI0
aI0
aa(lp2487
I0
aI0
aI0
aI0
aI0
aI1
aI0
aI0
aI0
aI0
aI1
aI0
aI0
aI0
aI1
aI0
aI0
aI0
aI0
aI0
aa(lp2488
I0
aI0
aI0
aI0
aI0
aI0
aI0
aI1
aI0
aI0
aI1
aI0
aI0
aI0
aI0
aI0
aI1
aI1
aI0
aI0
aa(lp2489
I0
aI1
aI0
aI0
aI0
aI0
aI0
aI0
aI0
aI0
aI0
aI0
aI1
aI0
aI0
aI0
aI0
aI0
aI0
aI0
aa(lp2490
I0
aI0
aI0
aI0
aI0
aI0
aI0
aI0
aI0
aI0
aI1
aI0
aI1
aI0
aI1
aI0
aI0
aI0
aI0
aI0
aa(lp2491
I1
aI0
aI0
aI0
aI0
aI1
aI0
aI0
aI0
aI0
aI0
aI0
aI0
aI1
aI0
aI0
aI0
aI0
aI0
aI1
aa(lp2492
I0
aI0
aI0
aI0
aI0
aI0
aI0
aI0
aI0
aI1
aI1
aI0
aI0
aI0
aI0
aI0
aI0
aI0
aI1
aI1
aa(lp2493
I0
aI0
aI0
aI0
aI0
aI1
aI0
aI0
aI0
aI1
aI0
aI0
aI1
aI0
aI1
aI0
aI0
aI0
aI0
aI0
aa(lp2494
I0
aI1
aI0
aI0
aI0
aI0
aI0
aI0
aI0
aI0
aI0
aI0
aI0
aI1
aI0
aI1
aI0
aI0
aI0
aI0
aa(lp2495
I1
aI1
aI0
aI0
aI0
aI0
aI0
aI0
aI0
aI1
aI0
aI0
aI0
aI0
aI0
aI0
aI0
aI0
aI0
aI0
aa(lp2496
I0
aI0
aI0
aI0
aI0
aI0
aI0
aI0
aI0
aI0
aI1
aI1
aI0
aI0
aI0
aI0
aI0
aI1
aI0
aI1
aa(lp2497
I0
aI0
aI1
aI0
aI0
aI0
aI0
aI1
aI1
aI0
aI1
aI0
aI0
aI0
aI0
aI0
aI0
aI0
aI0
aI0
aa(lp2498
I1
aI0
aI0
aI0
aI0
aI0
aI0
aI1
aI0
aI0
aI0
aI0
aI0
aI0
aI0
aI0
aI1
aI0
aI0
aI0
aa(lp2499
I0
aI0
aI1
aI1
aI0
aI0
aI0
aI1
aI0
aI0
aI0
aI0
aI0
aI0
aI0
aI0
aI0
aI0
aI1
aI0
aa(lp2500
I0
aI1
aI0
aI0
aI0
aI0
aI0
aI0
aI0
aI0
aI0
aI0
aI0
aI1
aI0
aI0
aI0
aI1
aI1
aI0
aa(lp2501
I0
aI0
aI0
aI0
aI0
aI0
aI0
aI1
aI0
aI0
aI0
aI0
aI1
aI0
aI0
aI1
aI0
aI0
aI0
aI0
aa(lp2502
I0
aI0
aI0
aI1
aI0
aI1
aI0
aI0
aI0
aI1
aI0
aI0
aI0
aI0
aI0
aI1
aI0
aI0
aI0
aI0
aa(lp2503
I0
aI0
aI0
aI0
aI0
aI0
aI1
aI0
aI0
aI0
aI0
aI0
aI0
aI0
aI0
aI1
aI1
aI0
aI0
aI1
aa(lp2504
I0
aI0
aI0
aI0
aI1
aI0
aI0
aI0
aI1
aI0
aI0
aI1
aI0
aI0
aI1
aI0
aI0
aI0
aI0
aI0
aa(lp2505
I1
aI0
aI0
aI0
aI0
aI0
aI0
aI0
aI0
aI0
aI0
aI1
aI0
aI0
aI0
aI0
aI0
aI0
aI0
aI1
aa(lp2506
I0
aI0
aI0
aI0
aI1
aI1
aI0
aI0
aI0
aI0
aI0
aI0
aI0
aI0
aI0
aI1
aI0
aI0
aI1
aI0
aa(lp2507
I1
aI0
aI0
aI1
aI0
aI0
aI1
aI0
aI0
aI0
aI0
aI0
aI1
aI0
aI0
aI0
aI0
aI0
aI0
aI0
aa(lp2508
I0
aI0
aI0
aI0
aI0
aI0
aI1
aI1
aI0
aI0
aI0
aI0
aI0
aI0
aI0
aI0
aI0
aI0
aI0
aI1
aa(lp2509
I0
aI1
aI0
aI0
aI0
aI0
aI1
aI0
aI0
aI0
aI1
aI0
aI0
aI0
aI0
aI0
aI0
aI0
aI1
aI0
aa(lp2510
I0
aI1
aI0
aI0
aI0
aI0
aI0
aI0
aI1
aI0
aI0
aI0
aI0
aI0
aI1
aI0
aI0
aI1
aI0
aI0
aa(lp2511
I0
aI0
aI0
aI1
aI1
aI0
aI0
aI0
aI0
aI0
aI0
aI0
aI0
aI1
aI0
aI1
aI0
aI0
aI0
aI0
aa(lp2512
I0
aI0
aI0
aI1
aI0
aI0
aI0
aI0
aI0
aI1
aI0
aI0
aI1
aI0
aI0
aI0
aI0
aI0
aI0
aI1
aa(lp2513
I0
aI0
aI1
aI1
aI0
aI0
aI0
aI0
aI0
aI0
aI0
aI0
aI0
aI1
aI1
aI0
aI0
aI0
aI0
aI0
aa(lp2514
I0
aI0
aI0
aI0
aI1
aI0
aI0
aI1
aI1
aI1
aI0
aI0
aI0
aI0
aI0
aI0
aI0
aI0
aI0
aI0
aa(lp2515
I0
aI1
aI0
aI0
aI0
aI0
aI0
aI1
aI0
aI0
aI1
aI0
aI0
aI0
aI0
aI0
aI0
aI0
aI1
aI0
aa(lp2516
I0
aI0
aI0
aI1
aI0
aI0
aI0
aI1
aI0
aI0
aI0
aI0
aI1
aI0
aI0
aI0
aI0
aI0
aI1
aI0
aa(lp2517
I0
aI0
aI0
aI1
aI0
aI1
aI1
aI1
aI0
aI0
aI0
aI0
aI0
aI0
aI0
aI0
aI0
aI0
aI0
aI0
aa(lp2518
I0
aI1
aI0
aI0
aI0
aI0
aI1
aI0
aI0
aI0
aI0
aI0
aI1
aI0
aI0
aI0
aI0
aI0
aI0
aI0
aa(lp2519
I0
aI0
aI0
aI0
aI0
aI1
aI0
aI0
aI0
aI0
aI0
aI0
aI1
aI1
aI0
aI0
aI1
aI0
aI0
aI0
aa(lp2520
I0
aI0
aI0
aI0
aI0
aI1
aI1
aI0
aI0
aI0
aI0
aI0
aI0
aI0
aI0
aI1
aI0
aI0
aI1
aI0
aa(lp2521
I0
aI0
aI1
aI0
aI0
aI0
aI1
aI0
aI0
aI0
aI0
aI0
aI0
aI0
aI1
aI0
aI0
aI1
aI0
aI0
aa(lp2522
I0
aI0
aI0
aI0
aI0
aI0
aI1
aI0
aI1
aI0
aI0
aI1
aI0
aI0
aI0
aI1
aI0
aI0
aI0
aI0
aa(lp2523
I0
aI0
aI0
aI0
aI0
aI0
aI0
aI0
aI0
aI0
aI0
aI1
aI0
aI1
aI0
aI0
aI0
aI0
aI0
aI1
aa(lp2524
I0
aI0
aI0
aI0
aI0
aI0
aI0
aI0
aI0
aI0
aI0
aI1
aI0
aI1
aI0
aI1
aI1
aI0
aI0
aI0
aa(lp2525
I0
aI0
aI0
aI1
aI0
aI0
aI0
aI0
aI1
aI0
aI0
aI0
aI1
aI0
aI0
aI0
aI1
aI0
aI0
aI0
aa(lp2526
I0
aI0
aI0
aI0
aI0
aI1
aI1
aI0
aI0
aI0
aI0
aI1
aI0
aI0
aI0
aI0
aI0
aI0
aI1
aI0
aa(lp2527
I0
aI0
aI0
aI0
aI1
aI0
aI0
aI1
aI0
aI0
aI0
aI0
aI0
aI1
aI0
aI0
aI1
aI0
aI0
aI0
aa(lp2528
I0
aI0
aI0
aI0
aI0
aI0
aI1
aI0
aI0
aI0
aI0
aI1
aI0
aI0
aI0
aI0
aI0
aI0
aI1
aI1
aa(lp2529
I0
aI0
aI0
aI0
aI0
aI0
aI0
aI0
aI0
aI0
aI0
aI0
aI0
aI0
aI1
aI1
aI0
aI0
aI0
aI1
aa(lp2530
I1
aI0
aI0
aI0
aI0
aI1
aI0
aI1
aI0
aI0
aI0
aI0
aI0
aI0
aI0
aI0
aI1
aI0
aI0
aI0
aa(lp2531
I0
aI0
aI1
aI0
aI0
aI1
aI0
aI0
aI1
aI0
aI0
aI0
aI0
aI0
aI0
aI0
aI0
aI0
aI0
aI1
aa(lp2532
I0
aI0
aI0
aI1
aI1
aI0
aI0
aI0
aI0
aI0
aI1
aI0
aI0
aI0
aI0
aI1
aI0
aI0
aI0
aI0
aa(lp2533
I0
aI0
aI0
aI0
aI0
aI0
aI0
aI0
aI1
aI0
aI0
aI1
aI0
aI0
aI0
aI0
aI0
aI0
aI1
aI0
aa(lp2534
I0
aI0
aI1
aI0
aI0
aI0
aI0
aI0
aI0
aI0
aI0
aI0
aI0
aI1
aI0
aI1
aI0
aI0
aI0
aI0
aa(lp2535
I0
aI1
aI0
aI1
aI1
aI0
aI0
aI0
aI0
aI0
aI0
aI0
aI0
aI0
aI0
aI0
aI0
aI1
aI0
aI0
aa(lp2536
I0
aI0
aI0
aI0
aI0
aI0
aI0
aI0
aI1
aI0
aI1
aI0
aI0
aI1
aI1
aI0
aI0
aI0
aI0
aI0
aa(lp2537
I0
aI0
aI0
aI0
aI0
aI0
aI0
aI0
aI0
aI0
aI0
aI0
aI0
aI0
aI1
aI0
aI0
aI0
aI0
aI1
aa(lp2538
I1
aI0
aI0
aI0
aI0
aI0
aI0
aI0
aI0
aI0
aI0
aI0
aI1
aI0
aI0
aI0
aI0
aI0
aI1
aI0
aa(lp2539
I0
aI1
aI1
aI0
aI0
aI0
aI0
aI0
aI0
aI0
aI0
aI0
aI0
aI1
aI0
aI0
aI0
aI1
aI0
aI0
aa(lp2540
I0
aI1
aI0
aI0
aI0
aI1
aI0
aI0
aI0
aI0
aI0
aI0
aI0
aI1
aI0
aI0
aI0
aI0
aI0
aI0
aa(lp2541
I0
aI1
aI0
aI0
aI0
aI0
aI1
aI0
aI0
aI0
aI0
aI1
aI0
aI0
aI1
aI0
aI0
aI0
aI0
aI0
aa(lp2542
I0
aI1
aI0
aI0
aI1
aI0
aI0
aI0
aI1
aI0
aI0
aI1
aI0
aI0
aI0
aI0
aI0
aI0
aI0
aI0
aa(lp2543
I0
aI0
aI0
aI0
aI0
aI0
aI0
aI0
aI1
aI0
aI0
aI1
aI0
aI0
aI0
aI0
aI1
aI1
aI0
aI0
aa(lp2544
I1
aI0
aI0
aI0
aI0
aI0
aI1
aI0
aI1
aI0
aI0
aI0
aI1
aI0
aI0
aI0
aI0
aI0
aI0
aI0
aa(lp2545
I0
aI1
aI0
aI0
aI0
aI0
aI0
aI0
aI0
aI0
aI0
aI1
aI0
aI1
aI0
aI0
aI0
aI0
aI0
aI1
aa(lp2546
I0
aI0
aI0
aI1
aI0
aI1
aI0
aI0
aI1
aI0
aI0
aI0
aI0
aI0
aI0
aI0
aI1
aI0
aI0
aI0
aa(lp2547
I1
aI0
aI0
aI1
aI0
aI0
aI0
aI0
aI1
aI0
aI0
aI0
aI1
aI0
aI0
aI0
aI0
aI0
aI0
aI0
aa(lp2548
I0
aI0
aI0
aI0
aI0
aI0
aI0
aI0
aI0
aI0
aI1
aI0
aI1
aI0
aI1
aI0
aI0
aI1
aI0
aI0
aa(lp2549
I1
aI0
aI0
aI0
aI1
aI0
aI0
aI0
aI0
aI1
aI1
aI0
aI0
aI0
aI0
aI0
aI0
aI0
aI0
aI0
aa(lp2550
I0
aI0
aI0
aI0
aI0
aI0
aI0
aI0
aI1
aI1
aI1
aI0
aI0
aI0
aI0
aI0
aI0
aI0
aI1
aI0
aa(lp2551
I0
aI0
aI0
aI0
aI0
aI0
aI1
aI0
aI0
aI0
aI1
aI0
aI0
aI0
aI0
aI0
aI0
aI0
aI0
aI1
aa(lp2552
I0
aI0
aI0
aI0
aI0
aI0
aI0
aI0
aI1
aI1
aI0
aI0
aI1
aI0
aI0
aI0
aI1
aI0
aI0
aI0
aa(lp2553
I0
aI0
aI0
aI0
aI0
aI0
aI0
aI1
aI0
aI1
aI1
aI0
aI0
aI0
aI0
aI1
aI0
aI0
aI0
aI0
aa(lp2554
I0
aI0
aI0
aI0
aI0
aI0
aI0
aI0
aI0
aI1
aI0
aI0
aI0
aI0
aI1
aI0
aI1
aI0
aI0
aI0
aa(lp2555
I0
aI0
aI0
aI0
aI0
aI0
aI0
aI1
aI0
aI1
aI1
aI0
aI0
aI0
aI0
aI0
aI0
aI0
aI1
aI0
aa(lp2556
I0
aI1
aI0
aI1
aI0
aI0
aI0
aI1
aI1
aI0
aI0
aI0
aI0
aI0
aI0
aI0
aI0
aI0
aI0
aI0
aa(lp2557
I0
aI0
aI0
aI0
aI0
aI0
aI0
aI0
aI0
aI0
aI0
aI1
aI1
aI0
aI0
aI1
aI0
aI0
aI0
aI0
aa(lp2558
I0
aI0
aI0
aI1
aI0
aI0
aI0
aI0
aI0
aI0
aI0
aI0
aI0
aI0
aI0
aI0
aI0
aI0
aI1
aI1
aa(lp2559
I0
aI0
aI1
aI0
aI1
aI0
aI0
aI0
aI0
aI1
aI0
aI0
aI0
aI0
aI0
aI0
aI0
aI0
aI0
aI1
aa(lp2560
I0
aI0
aI0
aI0
aI0
aI0
aI0
aI0
aI0
aI0
aI0
aI0
aI0
aI0
aI0
aI1
aI0
aI1
aI1
aI0
aa(lp2561
I0
aI0
aI1
aI0
aI0
aI0
aI0
aI0
aI1
aI0
aI0
aI0
aI0
aI0
aI1
aI1
aI0
aI0
aI0
aI0
aa(lp2562
I0
aI0
aI0
aI0
aI0
aI0
aI0
aI0
aI0
aI0
aI1
aI0
aI0
aI0
aI0
aI0
aI0
aI1
aI0
aI0
aa(lp2563
I0
aI0
aI1
aI0
aI0
aI0
aI0
aI0
aI0
aI0
aI1
aI0
aI0
aI1
aI0
aI0
aI0
aI0
aI0
aI0
aa(lp2564
I0
aI0
aI0
aI1
aI0
aI0
aI0
aI0
aI1
aI0
aI0
aI0
aI1
aI0
aI0
aI0
aI1
aI0
aI0
aI0
aa(lp2565
I1
aI0
aI0
aI0
aI0
aI0
aI0
aI0
aI1
aI0
aI0
aI0
aI0
aI0
aI1
aI0
aI0
aI0
aI0
aI0
aa(lp2566
I0
aI0
aI0
aI0
aI1
aI0
aI1
aI0
aI0
aI0
aI0
aI0
aI1
aI0
aI0
aI0
aI0
aI0
aI0
aI0
aa(lp2567
I1
aI0
aI0
aI0
aI0
aI0
aI0
aI0
aI0
aI0
aI0
aI0
aI0
aI1
aI0
aI1
aI1
aI0
aI0
aI0
aa(lp2568
I0
aI0
aI0
aI0
aI0
aI1
aI0
aI0
aI0
aI0
aI0
aI0
aI0
aI1
aI0
aI0
aI0
aI0
aI1
aI0
aa(lp2569
I0
aI0
aI1
aI0
aI0
aI0
aI0
aI0
aI1
aI0
aI0
aI0
aI0
aI0
aI0
aI0
aI1
aI0
aI1
aI0
aa(lp2570
I0
aI0
aI0
aI0
aI1
aI0
aI0
aI0
aI1
aI0
aI1
aI0
aI0
aI0
aI0
aI0
aI0
aI1
aI0
aI0
aa(lp2571
I0
aI1
aI0
aI1
aI0
aI0
aI0
aI0
aI0
aI0
aI0
aI0
aI0
aI1
aI0
aI0
aI0
aI0
aI1
aI0
aa(lp2572
I0
aI0
aI0
aI0
aI0
aI0
aI0
aI0
aI0
aI1
aI1
aI0
aI0
aI0
aI0
aI0
aI0
aI1
aI1
aI0
aa(lp2573
I0
aI0
aI0
aI0
aI0
aI1
aI0
aI0
aI0
aI0
aI0
aI0
aI1
aI0
aI1
aI0
aI1
aI0
aI0
aI0
aa(lp2574
I0
aI0
aI0
aI1
aI1
aI0
aI0
aI0
aI1
aI0
aI1
aI0
aI0
aI0
aI0
aI0
aI0
aI0
aI0
aI0
aa(lp2575
I0
aI1
aI0
aI0
aI0
aI0
aI0
aI0
aI1
aI1
aI0
aI0
aI0
aI0
aI0
aI1
aI0
aI0
aI0
aI0
aa(lp2576
I0
aI0
aI0
aI0
aI0
aI0
aI0
aI0
aI0
aI0
aI1
aI0
aI1
aI0
aI0
aI0
aI0
aI1
aI0
aI1
aa(lp2577
I1
aI0
aI0
aI0
aI1
aI0
aI0
aI0
aI0
aI0
aI0
aI0
aI1
aI0
aI0
aI0
aI1
aI0
aI0
aI0
aa(lp2578
I0
aI0
aI0
aI1
aI0
aI1
aI0
aI0
aI0
aI0
aI0
aI0
aI0
aI0
aI0
aI1
aI0
aI0
aI1
aI0
aa(lp2579
I1
aI0
aI0
aI1
aI0
aI0
aI0
aI0
aI1
aI0
aI0
aI0
aI0
aI0
aI0
aI1
aI0
aI0
aI0
aI0
aa(lp2580
I0
aI0
aI0
aI0
aI1
aI1
aI1
aI0
aI0
aI0
aI0
aI0
aI0
aI0
aI0
aI0
aI0
aI1
aI0
aI0
aa(lp2581
I0
aI0
aI1
aI0
aI0
aI0
aI0
aI0
aI0
aI0
aI0
aI0
aI1
aI0
aI0
aI1
aI0
aI0
aI1
aI0
aa(lp2582
I0
aI0
aI0
aI0
aI0
aI1
aI0
aI0
aI0
aI1
aI0
aI0
aI1
aI0
aI0
aI0
aI0
aI1
aI0
aI0
aa(lp2583
I0
aI0
aI0
aI0
aI0
aI0
aI0
aI0
aI0
aI1
aI1
aI0
aI0
aI0
aI1
aI0
aI0
aI0
aI0
aI0
aa(lp2584
I0
aI0
aI0
aI0
aI1
aI0
aI0
aI0
aI0
aI0
aI0
aI1
aI0
aI0
aI0
aI0
aI1
aI0
aI1
aI0
aa(lp2585
I0
aI0
aI0
aI0
aI0
aI0
aI0
aI0
aI0
aI1
aI0
aI0
aI0
aI1
aI0
aI0
aI0
aI0
aI0
aI1
aa(lp2586
I0
aI0
aI0
aI0
aI0
aI1
aI0
aI0
aI1
aI0
aI0
aI0
aI0
aI0
aI0
aI0
aI0
aI1
aI1
aI0
aa(lp2587
I0
aI0
aI0
aI0
aI1
aI0
aI0
aI0
aI0
aI0
aI0
aI0
aI0
aI0
aI0
aI0
aI1
aI0
aI1
aI1
aa(lp2588
I0
aI0
aI1
aI1
aI0
aI1
aI0
aI0
aI0
aI0
aI0
aI0
aI0
aI0
aI0
aI1
aI0
aI0
aI0
aI0
aa(lp2589
I0
aI0
aI1
aI1
aI1
aI0
aI0
aI0
aI1
aI0
aI0
aI0
aI0
aI0
aI0
aI0
aI0
aI0
aI0
aI0
aa(lp2590
I0
aI0
aI0
aI0
aI0
aI1
aI0
aI0
aI1
aI0
aI0
aI0
aI0
aI1
aI0
aI0
aI0
aI0
aI1
aI0
aa(lp2591
I0
aI0
aI0
aI0
aI0
aI0
aI0
aI0
aI1
aI0
aI0
aI0
aI0
aI1
aI0
aI1
aI0
aI0
aI0
aI0
aa(lp2592
I0
aI0
aI0
aI0
aI0
aI0
aI0
aI0
aI0
aI0
aI1
aI1
aI1
aI1
aI0
aI0
aI0
aI0
aI0
aI0
aa(lp2593
I0
aI0
aI1
aI0
aI0
aI0
aI0
aI1
aI0
aI0
aI0
aI0
aI1
aI0
aI0
aI1
aI0
aI0
aI0
aI0
aa(lp2594
I0
aI0
aI0
aI1
aI0
aI0
aI0
aI0
aI0
aI0
aI0
aI0
aI1
aI0
aI0
aI1
aI1
aI0
aI0
aI0
aa(lp2595
I0
aI0
aI0
aI0
aI0
aI0
aI0
aI0
aI0
aI1
aI0
aI0
aI1
aI0
aI0
aI0
aI0
aI0
aI0
aI1
aa(lp2596
I0
aI0
aI1
aI0
aI0
aI0
aI0
aI0
aI0
aI1
aI0
aI1
aI0
aI0
aI0
aI0
aI0
aI0
aI0
aI1
aa(lp2597
I0
aI0
aI0
aI0
aI1
aI0
aI0
aI0
aI0
aI1
aI0
aI1
aI1
aI0
aI0
aI0
aI0
aI0
aI0
aI0
aa(lp2598
I1
aI0
aI1
aI0
aI0
aI0
aI0
aI0
aI1
aI0
aI0
aI0
aI1
aI0
aI0
aI0
aI0
aI0
aI0
aI0
aa(lp2599
I0
aI0
aI0
aI0
aI1
aI0
aI1
aI0
aI0
aI0
aI0
aI0
aI1
aI0
aI0
aI1
aI0
aI0
aI0
aI0
aa(lp2600
I1
aI0
aI0
aI0
aI0
aI1
aI0
aI0
aI1
aI0
aI0
aI0
aI0
aI1
aI0
aI0
aI0
aI0
aI0
aI0
aa(lp2601
I0
aI0
aI1
aI0
aI0
aI1
aI0
aI0
aI1
aI0
aI0
aI0
aI1
aI0
aI0
aI0
aI0
aI0
aI0
aI0
aa(lp2602
I0
aI0
aI0
aI1
aI0
aI0
aI0
aI1
aI0
aI1
aI0
aI0
aI0
aI0
aI0
aI1
aI0
aI0
aI0
aI0
aa(lp2603
I0
aI0
aI0
aI0
aI0
aI0
aI0
aI0
aI0
aI1
aI0
aI0
aI0
aI0
aI1
aI1
aI0
aI0
aI0
aI0
aa(lp2604
I0
aI0
aI0
aI0
aI0
aI0
aI0
aI1
aI0
aI1
aI0
aI1
aI0
aI0
aI0
aI0
aI0
aI0
aI1
aI0
aa(lp2605
I0
aI0
aI0
aI0
aI0
aI0
aI1
aI0
aI0
aI0
aI0
aI0
aI0
aI1
aI0
aI1
aI1
aI0
aI0
aI0
aa(lp2606
I0
aI1
aI0
aI0
aI0
aI1
aI0
aI0
aI0
aI0
aI0
aI0
aI0
aI0
aI1
aI0
aI0
aI0
aI0
aI0
aa(lp2607
I0
aI0
aI0
aI1
aI0
aI0
aI0
aI0
aI0
aI0
aI1
aI0
aI0
aI0
aI0
aI1
aI0
aI0
aI0
aI1
aa(lp2608
I0
aI0
aI0
aI0
aI0
aI1
aI0
aI0
aI0
aI0
aI0
aI0
aI0
aI1
aI1
aI1
aI0
aI0
aI0
aI0
aa(lp2609
I0
aI0
aI0
aI1
aI0
aI0
aI1
aI0
aI1
aI0
aI0
aI1
aI0
aI0
aI0
aI0
aI0
aI0
aI0
aI0
aa(lp2610
I0
aI1
aI0
aI0
aI1
aI0
aI0
aI0
aI0
aI1
aI0
aI0
aI0
aI1
aI0
aI0
aI0
aI0
aI0
aI0
aa(lp2611
I0
aI0
aI0
aI0
aI0
aI0
aI0
aI0
aI0
aI0
aI0
aI0
aI0
aI1
aI1
aI0
aI1
aI0
aI0
aI0
aa(lp2612
I0
aI0
aI0
aI0
aI0
aI1
aI0
aI1
aI0
aI0
aI1
aI0
aI0
aI0
aI0
aI1
aI0
aI0
aI0
aI0
aa(lp2613
I0
aI0
aI0
aI0
aI0
aI0
aI0
aI0
aI1
aI0
aI0
aI0
aI0
aI0
aI1
aI1
aI0
aI1
aI0
aI0
aa(lp2614
I0
aI0
aI0
aI0
aI0
aI0
aI0
aI1
aI0
aI0
aI0
aI0
aI0
aI1
aI1
aI0
aI0
aI0
aI0
aI0
aa(lp2615
I0
aI0
aI0
aI1
aI0
aI0
aI1
aI0
aI0
aI0
aI1
aI0
aI0
aI0
aI1
aI0
aI0
aI0
aI0
aI0
aa(lp2616
I0
aI0
aI0
aI1
aI0
aI0
aI0
aI0
aI0
aI1
aI0
aI0
aI1
aI0
aI0
aI0
aI0
aI0
aI1
aI0
aa(lp2617
I0
aI1
aI0
aI0
aI1
aI0
aI1
aI0
aI0
aI0
aI0
aI0
aI0
aI0
aI1
aI0
aI0
aI0
aI0
aI0
aa(lp2618
I0
aI0
aI0
aI0
aI1
aI0
aI0
aI0
aI1
aI1
aI1
aI0
aI0
aI0
aI0
aI0
aI0
aI0
aI0
aI0
aa(lp2619
I0
aI1
aI0
aI0
aI1
aI0
aI0
aI0
aI0
aI0
aI0
aI0
aI0
aI1
aI0
aI0
aI0
aI0
aI0
aI0
aa(lp2620
I0
aI0
aI0
aI0
aI0
aI0
aI1
aI0
aI0
aI1
aI0
aI1
aI0
aI0
aI1
aI0
aI0
aI0
aI0
aI0
aa(lp2621
I0
aI0
aI0
aI1
aI0
aI0
aI0
aI0
aI0
aI0
aI1
aI0
aI0
aI0
aI1
aI0
aI1
aI0
aI0
aI0
aa(lp2622
I0
aI0
aI0
aI0
aI0
aI0
aI0
aI0
aI0
aI1
aI0
aI1
aI1
aI0
aI1
aI0
aI0
aI0
aI0
aI0
aa(lp2623
I0
aI0
aI0
aI1
aI1
aI0
aI0
aI0
aI0
aI1
aI0
aI0
aI0
aI0
aI0
aI0
aI0
aI0
aI0
aI1
aa(lp2624
I0
aI1
aI0
aI0
aI0
aI0
aI0
aI0
aI0
aI0
aI0
aI1
aI1
aI0
aI0
aI0
aI0
aI0
aI0
aI0
aa(lp2625
I0
aI0
aI0
aI0
aI0
aI0
aI0
aI0
aI0
aI0
aI0
aI0
aI0
aI0
aI1
aI1
aI0
aI0
aI0
aI1
aa(lp2626
I0
aI0
aI0
aI0
aI0
aI1
aI0
aI0
aI0
aI1
aI1
aI0
aI0
aI0
aI0
aI0
aI0
aI1
aI0
aI0
aa(lp2627
I0
aI0
aI1
aI0
aI0
aI0
aI0
aI0
aI0
aI0
aI0
aI0
aI0
aI1
aI0
aI0
aI1
aI1
aI0
aI0
aa(lp2628
I0
aI0
aI0
aI0
aI0
aI0
aI0
aI0
aI0
aI0
aI0
aI1
aI0
aI0
aI0
aI0
aI0
aI1
aI1
aI1
aa(lp2629
I0
aI0
aI0
aI0
aI1
aI0
aI1
aI0
aI0
aI0
aI0
aI0
aI0
aI0
aI0
aI0
aI1
aI0
aI0
aI0
aa(lp2630
I0
aI0
aI0
aI0
aI0
aI0
aI0
aI0
aI0
aI0
aI1
aI1
aI1
aI0
aI0
aI0
aI0
aI0
aI0
aI0
aa(lp2631
I1
aI0
aI0
aI0
aI0
aI0
aI0
aI0
aI0
aI0
aI0
aI0
aI0
aI1
aI0
aI0
aI0
aI0
aI0
aI1
aa(lp2632
I0
aI0
aI0
aI0
aI1
aI0
aI0
aI0
aI0
aI0
aI1
aI0
aI1
aI0
aI0
aI0
aI0
aI0
aI1
aI0
aa(lp2633
I0
aI0
aI0
aI1
aI0
aI0
aI0
aI0
aI1
aI0
aI0
aI0
aI1
aI1
aI0
aI0
aI0
aI0
aI0
aI0
aa(lp2634
I0
aI0
aI1
aI0
aI0
aI0
aI0
aI0
aI0
aI0
aI0
aI1
aI1
aI0
aI0
aI0
aI0
aI1
aI0
aI0
aa(lp2635
I0
aI0
aI1
aI0
aI0
aI0
aI1
aI0
aI0
aI0
aI0
aI0
aI0
aI1
aI1
aI0
aI0
aI0
aI0
aI0
aa(lp2636
I1
aI0
aI0
aI0
aI1
aI0
aI1
aI0
aI0
aI0
aI0
aI0
aI1
aI0
aI0
aI0
aI0
aI0
aI0
aI0
aa(lp2637
I1
aI0
aI0
aI0
aI1
aI0
aI0
aI0
aI0
aI1
aI1
aI0
aI0
aI0
aI0
aI0
aI0
aI0
aI0
aI0
aa(lp2638
I0
aI0
aI0
aI0
aI0
aI0
aI0
aI1
aI0
aI1
aI0
aI0
aI0
aI1
aI0
aI1
aI0
aI0
aI0
aI0
aa(lp2639
I0
aI0
aI0
aI0
aI0
aI0
aI0
aI0
aI0
aI1
aI0
aI0
aI0
aI1
aI0
aI0
aI1
aI1
aI0
aI0
aa(lp2640
I0
aI0
aI0
aI0
aI1
aI1
aI1
aI0
aI0
aI0
aI0
aI0
aI0
aI0
aI1
aI0
aI0
aI0
aI0
aI0
aa(lp2641
I0
aI0
aI0
aI1
aI0
aI0
aI0
aI0
aI0
aI1
aI0
aI0
aI0
aI0
aI0
aI0
aI0
aI1
aI0
aI1
aa(lp2642
I0
aI0
aI0
aI0
aI1
aI0
aI0
aI0
aI1
aI0
aI0
aI0
aI0
aI1
aI0
aI0
aI0
aI0
aI0
aI0
aa(lp2643
I0
aI1
aI1
aI0
aI0
aI0
aI0
aI0
aI1
aI0
aI0
aI0
aI0
aI0
aI0
aI1
aI0
aI0
aI0
aI0
aa(lp2644
I0
aI0
aI0
aI0
aI0
aI0
aI0
aI1
aI0
aI0
aI0
aI0
aI1
aI1
aI1
aI0
aI0
aI0
aI0
aI0
aa(lp2645
I0
aI0
aI0
aI0
aI0
aI0
aI0
aI0
aI0
aI0
aI0
aI1
aI0
aI0
aI1
aI1
aI1
aI0
aI0
aI0
aa(lp2646
I0
aI0
aI0
aI0
aI1
aI0
aI0
aI0
aI0
aI0
aI0
aI0
aI0
aI0
aI0
aI0
aI0
aI0
aI1
aI0
aa(lp2647
I1
aI0
aI0
aI0
aI0
aI0
aI0
aI0
aI1
aI0
aI0
aI0
aI0
aI1
aI1
aI0
aI0
aI0
aI0
aI0
aa(lp2648
I0
aI0
aI0
aI0
aI0
aI0
aI0
aI0
aI1
aI0
aI1
aI0
aI0
aI1
aI0
aI0
aI0
aI1
aI0
aI0
aa(lp2649
I1
aI1
aI0
aI0
aI0
aI0
aI0
aI0
aI0
aI0
aI0
aI0
aI0
aI0
aI0
aI1
aI1
aI0
aI0
aI0
aa(lp2650
I0
aI1
aI0
aI0
aI0
aI0
aI0
aI1
aI0
aI1
aI0
aI1
aI0
aI0
aI0
aI0
aI0
aI0
aI0
aI0
aa(lp2651
I1
aI0
aI0
aI0
aI0
aI0
aI0
aI1
aI1
aI0
aI0
aI1
aI0
aI0
aI0
aI0
aI0
aI0
aI0
aI0
aa(lp2652
I0
aI0
aI0
aI1
aI1
aI1
aI0
aI0
aI0
aI0
aI0
aI0
aI0
aI0
aI0
aI0
aI0
aI0
aI1
aI0
aa(lp2653
I0
aI0
aI1
aI0
aI0
aI0
aI0
aI0
aI0
aI1
aI0
aI0
aI1
aI0
aI0
aI0
aI0
aI0
aI1
aI0
aa(lp2654
I0
aI0
aI0
aI0
aI0
aI1
aI0
aI0
aI1
aI0
aI0
aI0
aI0
aI0
aI0
aI1
aI0
aI0
aI1
aI0
aa(lp2655
I0
aI0
aI1
aI0
aI0
aI0
aI0
aI0
aI0
aI0
aI0
aI0
aI0
aI0
aI1
aI0
aI0
aI0
aI0
aI0
aa(lp2656
I0
aI0
aI0
aI0
aI0
aI0
aI0
aI1
aI0
aI0
aI0
aI0
aI0
aI0
aI0
aI0
aI0
aI1
aI1
aI0
aa(lp2657
I0
aI0
aI0
aI0
aI0
aI1
aI0
aI0
aI1
aI0
aI0
aI0
aI0
aI0
aI0
aI0
aI0
aI1
aI0
aI1
aa(lp2658
I0
aI0
aI0
aI1
aI0
aI0
aI0
aI1
aI0
aI0
aI0
aI0
aI0
aI0
aI1
aI0
aI0
aI0
aI0
aI1
aa(lp2659
I1
aI0
aI0
aI0
aI0
aI0
aI0
aI1
aI0
aI0
aI1
aI0
aI0
aI0
aI0
aI0
aI0
aI0
aI1
aI0
aa(lp2660
I1
aI0
aI0
aI0
aI0
aI0
aI0
aI0
aI0
aI0
aI0
aI1
aI1
aI0
aI0
aI0
aI0
aI0
aI0
aI1
aa(lp2661
I0
aI0
aI1
aI0
aI1
aI0
aI0
aI1
aI0
aI0
aI0
aI0
aI0
aI0
aI0
aI0
aI0
aI0
aI0
aI0
aa(lp2662
I0
aI0
aI0
aI1
aI0
aI0
aI0
aI1
aI0
aI0
aI1
aI0
aI1
aI0
aI0
aI0
aI0
aI0
aI0
aI0
aa(lp2663
I0
aI0
aI0
aI0
aI0
aI1
aI0
aI0
aI0
aI0
aI0
aI0
aI0
aI0
aI1
aI1
aI0
aI0
aI0
aI1
aa(lp2664
I0
aI0
aI0
aI0
aI0
aI1
aI0
aI0
aI0
aI1
aI0
aI1
aI0
aI0
aI1
aI0
aI0
aI0
aI0
aI0
aa(lp2665
I0
aI1
aI0
aI0
aI0
aI0
aI0
aI0
aI0
aI0
aI0
aI0
aI0
aI0
aI1
aI0
aI1
aI1
aI0
aI0
aa(lp2666
I0
aI1
aI0
aI0
aI0
aI0
aI1
aI0
aI0
aI1
aI1
aI0
aI0
aI0
aI0
aI0
aI0
aI0
aI0
aI0
aa(lp2667
I0
aI0
aI0
aI1
aI0
aI0
aI0
aI0
aI0
aI0
aI0
aI0
aI0
aI1
aI0
aI1
aI0
aI0
aI1
aI0
aa(lp2668
I0
aI0
aI0
aI0
aI0
aI0
aI0
aI0
aI1
aI0
aI0
aI0
aI0
aI1
aI0
aI1
aI0
aI1
aI0
aI0
aa(lp2669
I0
aI0
aI0
aI0
aI0
aI0
aI0
aI0
aI0
aI0
aI0
aI0
aI0
aI0
aI1
aI0
aI1
aI1
aI0
aI0
aa(lp2670
I0
aI0
aI0
aI1
aI0
aI0
aI0
aI0
aI0
aI1
aI0
aI1
aI0
aI0
aI0
aI0
aI0
aI0
aI0
aI0
aa(lp2671
I0
aI0
aI0
aI0
aI0
aI0
aI0
aI0
aI0
aI0
aI0
aI0
aI1
aI0
aI0
aI1
aI0
aI0
aI1
aI0
aa(lp2672
I1
aI0
aI0
aI0
aI0
aI0
aI0
aI0
aI0
aI0
aI0
aI0
aI0
aI0
aI0
aI1
aI1
aI0
aI0
aI0
aa(lp2673
I0
aI0
aI1
aI0
aI0
aI0
aI0
aI0
aI0
aI0
aI0
aI0
aI0
aI0
aI0
aI1
aI0
aI1
aI0
aI1
aa(lp2674
I0
aI0
aI0
aI0
aI0
aI0
aI1
aI1
aI0
aI0
aI1
aI0
aI0
aI0
aI0
aI0
aI0
aI0
aI0
aI1
aa(lp2675
I0
aI0
aI0
aI0
aI1
aI0
aI0
aI0
aI1
aI0
aI0
aI0
aI0
aI0
aI1
aI0
aI0
aI0
aI0
aI0
aa(lp2676
I0
aI0
aI0
aI0
aI0
aI1
aI1
aI0
aI1
aI0
aI1
aI0
aI0
aI0
aI0
aI0
aI0
aI0
aI0
aI0
aa(lp2677
I0
aI1
aI0
aI0
aI0
aI0
aI1
aI0
aI1
aI0
aI0
aI0
aI1
aI0
aI0
aI0
aI0
aI0
aI0
aI0
aa(lp2678
I0
aI1
aI0
aI0
aI1
aI0
aI0
aI0
aI0
aI0
aI0
aI0
aI1
aI0
aI0
aI0
aI0
aI0
aI0
aI1
aa(lp2679
I1
aI0
aI1
aI0
aI0
aI0
aI0
aI0
aI0
aI0
aI0
aI1
aI0
aI0
aI0
aI0
aI0
aI0
aI1
aI0
aa(lp2680
I0
aI0
aI0
aI0
aI0
aI0
aI0
aI0
aI0
aI0
aI0
aI0
aI1
aI0
aI1
aI0
aI0
aI0
aI0
aI0
aa(lp2681
I0
aI0
aI0
aI1
aI0
aI0
aI1
aI1
aI0
aI0
aI0
aI0
aI0
aI0
aI0
aI0
aI0
aI0
aI0
aI0
aa(lp2682
I1
aI0
aI0
aI1
aI1
aI0
aI0
aI0
aI1
aI0
aI0
aI0
aI0
aI0
aI0
aI0
aI0
aI0
aI0
aI0
aa(lp2683
I0
aI0
aI0
aI0
aI1
aI1
aI0
aI0
aI0
aI0
aI0
aI0
aI0
aI0
aI1
aI0
aI0
aI1
aI0
aI0
aa(lp2684
I0
aI0
aI1
aI0
aI1
aI0
aI0
aI0
aI1
aI0
aI0
aI0
aI0
aI0
aI0
aI0
aI0
aI0
aI0
aI0
aa(lp2685
I0
aI0
aI1
aI0
aI0
aI0
aI1
aI0
aI1
aI0
aI1
aI0
aI0
aI0
aI0
aI0
aI0
aI0
aI0
aI0
aa(lp2686
I0
aI0
aI0
aI0
aI0
aI1
aI0
aI1
aI0
aI1
aI0
aI0
aI0
aI0
aI0
aI0
aI0
aI0
aI0
aI1
aa(lp2687
I0
aI1
aI0
aI0
aI0
aI0
aI0
aI0
aI0
aI0
aI0
aI0
aI0
aI0
aI0
aI0
aI1
aI0
aI1
aI1
aa(lp2688
I0
aI0
aI1
aI0
aI0
aI0
aI0
aI0
aI0
aI0
aI0
aI0
aI1
aI0
aI0
aI1
aI0
aI0
aI0
aI0
aa(lp2689
I1
aI0
aI0
aI0
aI0
aI0
aI0
aI0
aI0
aI0
aI0
aI0
aI0
aI1
aI1
aI0
aI0
aI0
aI0
aI1
aa(lp2690
I0
aI0
aI0
aI0
aI0
aI1
aI0
aI1
aI0
aI0
aI0
aI1
aI0
aI0
aI0
aI0
aI1
aI0
aI0
aI0
aa(lp2691
I0
aI0
aI0
aI0
aI0
aI0
aI0
aI1
aI0
aI0
aI0
aI0
aI1
aI0
aI0
aI0
aI0
aI1
aI0
aI0
aa(lp2692
I0
aI0
aI1
aI0
aI1
aI1
aI0
aI0
aI0
aI0
aI0
aI0
aI0
aI0
aI0
aI0
aI0
aI1
aI0
aI0
aa(lp2693
I0
aI0
aI0
aI1
aI0
aI1
aI0
aI0
aI0
aI0
aI0
aI0
aI0
aI1
aI0
aI1
aI0
aI0
aI0
aI0
aa(lp2694
I0
aI0
aI1
aI0
aI0
aI0
aI1
aI0
aI0
aI0
aI0
aI0
aI0
aI0
aI0
aI0
aI1
aI0
aI0
aI1
aa(lp2695
I0
aI0
aI1
aI0
aI0
aI0
aI0
aI1
aI1
aI0
aI0
aI0
aI0
aI0
aI0
aI0
aI1
aI0
aI0
aI0
aa(lp2696
I0
aI0
aI0
aI0
aI0
aI0
aI0
aI0
aI1
aI1
aI1
aI0
aI0
aI0
aI0
aI0
aI0
aI0
aI0
aI0
aa(lp2697
I0
aI0
aI1
aI1
aI0
aI0
aI0
aI0
aI0
aI0
aI0
aI0
aI0
aI0
aI0
aI0
aI0
aI0
aI1
aI1
aa(lp2698
I0
aI1
aI1
aI1
aI0
aI0
aI0
aI0
aI0
aI0
aI0
aI0
aI0
aI0
aI0
aI0
aI1
aI0
aI0
aI0
aa(lp2699
I0
aI0
aI0
aI0
aI0
aI0
aI0
aI0
aI0
aI0
aI0
aI0
aI0
aI1
aI0
aI0
aI0
aI1
aI1
aI1
aa(lp2700
I0
aI0
aI1
aI0
aI0
aI0
aI0
aI0
aI0
aI1
aI0
aI0
aI0
aI0
aI0
aI1
aI0
aI0
aI0
aI1
aa(lp2701
I0
aI0
aI1
aI0
aI0
aI0
aI0
aI0
aI1
aI0
aI0
aI0
aI1
aI0
aI0
aI1
aI0
aI0
aI0
aI0
aa(lp2702
I0
aI0
aI0
aI0
aI1
aI0
aI1
aI0
aI0
aI0
aI0
aI1
aI1
aI0
aI0
aI0
aI0
aI0
aI0
aI0
aa(lp2703
I1
aI1
aI0
aI0
aI0
aI0
aI0
aI0
aI0
aI0
aI0
aI0
aI0
aI0
aI0
aI0
aI0
aI1
aI0
aI1
aa(lp2704
I0
aI0
aI0
aI0
aI1
aI0
aI0
aI0
aI0
aI0
aI0
aI1
aI1
aI0
aI0
aI0
aI0
aI0
aI1
aI0
aa(lp2705
I0
aI0
aI1
aI1
aI0
aI0
aI0
aI1
aI0
aI0
aI0
aI0
aI1
aI0
aI0
aI0
aI0
aI0
aI0
aI0
aa(lp2706
I0
aI1
aI0
aI0
aI0
aI0
aI1
aI0
aI0
aI0
aI1
aI0
aI0
aI1
aI0
aI0
aI0
aI0
aI0
aI0
aa(lp2707
I0
aI1
aI0
aI0
aI0
aI0
aI0
aI0
aI0
aI1
aI0
aI0
aI0
aI0
aI0
aI0
aI0
aI0
aI1
aI1
aa(lp2708
I0
aI0
aI0
aI1
aI0
aI0
aI0
aI0
aI0
aI1
aI0
aI0
aI0
aI1
aI0
aI0
aI0
aI0
aI0
aI0
aa(lp2709
I0
aI0
aI1
aI0
aI1
aI0
aI0
aI0
aI0
aI0
aI0
aI1
aI1
aI0
aI0
aI0
aI0
aI0
aI0
aI0
aa(lp2710
I0
aI0
aI1
aI0
aI1
aI0
aI0
aI0
aI0
aI0
aI0
aI0
aI0
aI0
aI0
aI1
aI0
aI0
aI1
aI0
aa(lp2711
I1
aI1
aI0
aI0
aI0
aI0
aI0
aI1
aI0
aI0
aI0
aI0
aI1
aI0
aI0
aI0
aI0
aI0
aI0
aI0
aa(lp2712
I0
aI0
aI1
aI0
aI0
aI0
aI0
aI0
aI1
aI0
aI0
aI0
aI0
aI1
aI0
aI0
aI1
aI0
aI0
aI0
aa(lp2713
I0
aI0
aI0
aI1
aI0
aI0
aI0
aI0
aI0
aI1
aI0
aI0
aI0
aI1
aI0
aI0
aI0
aI1
aI0
aI0
aa(lp2714
I1
aI0
aI0
aI0
aI0
aI0
aI0
aI0
aI0
aI0
aI0
aI1
aI0
aI0
aI1
aI0
aI0
aI1
aI0
aI0
aa(lp2715
I1
aI0
aI0
aI0
aI0
aI0
aI0
aI0
aI0
aI0
aI0
aI0
aI0
aI0
aI0
aI1
aI1
aI0
aI0
aI1
aa(lp2716
I0
aI0
aI0
aI0
aI1
aI0
aI0
aI0
aI1
aI0
aI0
aI0
aI0
aI0
aI1
aI0
aI0
aI0
aI0
aI0
aa(lp2717
I0
aI1
aI1
aI1
aI0
aI0
aI0
aI0
aI0
aI0
aI0
aI0
aI0
aI0
aI0
aI0
aI1
aI0
aI0
aI0
aa(lp2718
I0
aI0
aI0
aI0
aI0
aI0
aI0
aI1
aI0
aI0
aI0
aI0
aI1
aI0
aI0
aI0
aI1
aI0
aI0
aI1
aa(lp2719
I0
aI0
aI0
aI0
aI0
aI0
aI1
aI1
aI0
aI0
aI0
aI0
aI1
aI0
aI0
aI0
aI0
aI0
aI0
aI1
aa(lp2720
I1
aI0
aI0
aI1
aI0
aI0
aI0
aI0
aI0
aI1
aI0
aI0
aI0
aI1
aI0
aI0
aI0
aI0
aI0
aI0
aa(lp2721
I0
aI0
aI0
aI0
aI0
aI0
aI0
aI0
aI1
aI1
aI0
aI0
aI1
aI1
aI0
aI0
aI0
aI0
aI0
aI0
aa(lp2722
I0
aI0
aI0
aI0
aI0
aI0
aI1
aI1
aI0
aI0
aI0
aI0
aI1
aI0
aI0
aI1
aI0
aI0
aI0
aI0
aa(lp2723
I0
aI0
aI0
aI0
aI0
aI0
aI1
aI0
aI1
aI0
aI0
aI0
aI1
aI0
aI1
aI0
aI0
aI0
aI0
aI0
aa(lp2724
I0
aI1
aI0
aI0
aI0
aI0
aI0
aI0
aI0
aI0
aI1
aI1
aI0
aI0
aI0
aI0
aI0
aI0
aI0
aI1
aa(lp2725
I1
aI0
aI0
aI0
aI0
aI0
aI0
aI0
aI1
aI0
aI0
aI0
aI0
aI1
aI0
aI0
aI0
aI0
aI1
aI0
aa(lp2726
I0
aI0
aI0
aI0
aI0
aI0
aI0
aI0
aI0
aI0
aI1
aI1
aI0
aI0
aI0
aI0
aI0
aI0
aI0
aI1
aa(lp2727
I1
aI0
aI0
aI0
aI0
aI1
aI1
aI0
aI0
aI0
aI0
aI0
aI0
aI0
aI0
aI0
aI0
aI1
aI0
aI0
aa(lp2728
I0
aI0
aI1
aI0
aI0
aI0
aI0
aI1
aI1
aI0
aI0
aI0
aI0
aI0
aI0
aI0
aI1
aI0
aI0
aI0
aa(lp2729
I1
aI0
aI0
aI1
aI0
aI0
aI0
aI1
aI1
aI0
aI0
aI0
aI0
aI0
aI0
aI0
aI0
aI0
aI0
aI0
aa(lp2730
I0
aI0
aI0
aI0
aI1
aI0
aI0
aI0
aI0
aI0
aI1
aI1
aI0
aI0
aI1
aI0
aI0
aI0
aI0
aI0
aa(lp2731
I0
aI0
aI0
aI0
aI1
aI0
aI0
aI0
aI0
aI0
aI1
aI0
aI0
aI1
aI0
aI0
aI0
aI0
aI0
aI1
aa(lp2732
I0
aI0
aI1
aI0
aI0
aI0
aI1
aI0
aI0
aI0
aI0
aI0
aI0
aI0
aI0
aI0
aI0
aI1
aI0
aI1
aa(lp2733
I0
aI0
aI0
aI1
aI0
aI0
aI0
aI0
aI0
aI0
aI0
aI0
aI1
aI0
aI0
aI0
aI1
aI1
aI0
aI0
aa(lp2734
I1
aI0
aI0
aI0
aI0
aI0
aI0
aI0
aI0
aI1
aI0
aI0
aI0
aI0
aI1
aI0
aI0
aI0
aI0
aI0
aa(lp2735
I0
aI1
aI0
aI0
aI0
aI0
aI0
aI0
aI1
aI0
aI0
aI0
aI0
aI0
aI0
aI0
aI1
aI0
aI0
aI1
aa(lp2736
I0
aI0
aI0
aI0
aI0
aI0
aI0
aI0
aI0
aI1
aI0
aI0
aI0
aI0
aI0
aI0
aI1
aI0
aI1
aI0
aa(lp2737
I0
aI0
aI0
aI0
aI0
aI0
aI0
aI0
aI0
aI1
aI0
aI1
aI0
aI0
aI1
aI0
aI0
aI0
aI0
aI1
aa(lp2738
I0
aI0
aI0
aI0
aI0
aI0
aI0
aI0
aI1
aI1
aI0
aI1
aI0
aI0
aI0
aI0
aI0
aI0
aI1
aI0
aa(lp2739
I0
aI0
aI0
aI0
aI0
aI1
aI0
aI0
aI0
aI0
aI0
aI0
aI0
aI0
aI0
aI0
aI0
aI1
aI0
aI1
aa(lp2740
I0
aI0
aI1
aI1
aI0
aI0
aI1
aI0
aI0
aI0
aI0
aI0
aI0
aI0
aI0
aI0
aI0
aI0
aI0
aI1
aa(lp2741
I0
aI0
aI0
aI0
aI0
aI0
aI0
aI1
aI0
aI0
aI0
aI0
aI0
aI0
aI0
aI0
aI1
aI0
aI0
aI1
aa(lp2742
I0
aI0
aI0
aI1
aI0
aI1
aI0
aI0
aI0
aI0
aI0
aI0
aI0
aI1
aI0
aI0
aI0
aI0
aI0
aI0
aa(lp2743
I0
aI0
aI0
aI0
aI0
aI0
aI0
aI1
aI0
aI1
aI1
aI0
aI0
aI0
aI0
aI0
aI0
aI0
aI0
aI0
aa(lp2744
I0
aI0
aI0
aI1
aI0
aI1
aI0
aI0
aI0
aI0
aI0
aI0
aI0
aI0
aI1
aI0
aI1
aI0
aI0
aI0
aa(lp2745
I0
aI0
aI0
aI0
aI0
aI0
aI0
aI0
aI1
aI0
aI0
aI0
aI1
aI0
aI0
aI0
aI0
aI1
aI0
aI0
aa(lp2746
I0
aI1
aI0
aI0
aI0
aI0
aI0
aI0
aI0
aI0
aI1
aI0
aI0
aI0
aI0
aI0
aI0
aI1
aI1
aI0
aa(lp2747
I0
aI0
aI0
aI1
aI0
aI0
aI0
aI1
aI0
aI0
aI0
aI0
aI0
aI0
aI0
aI0
aI0
aI0
aI1
aI1
aa(lp2748
I0
aI0
aI0
aI0
aI0
aI0
aI0
aI0
aI0
aI1
aI0
aI0
aI0
aI0
aI0
aI0
aI0
aI0
aI0
aI1
aa(lp2749
I0
aI0
aI0
aI0
aI0
aI1
aI0
aI0
aI1
aI1
aI0
aI0
aI0
aI0
aI0
aI0
aI0
aI0
aI0
aI1
aa(lp2750
I1
aI0
aI0
aI0
aI0
aI0
aI0
aI1
aI0
aI0
aI0
aI0
aI0
aI1
aI0
aI1
aI0
aI0
aI0
aI0
aa(lp2751
I1
aI0
aI0
aI0
aI0
aI0
aI1
aI0
aI0
aI0
aI0
aI0
aI0
aI1
aI0
aI1
aI0
aI0
aI0
aI0
aa(lp2752
I0
aI0
aI0
aI0
aI0
aI1
aI0
aI1
aI1
aI0
aI0
aI0
aI0
aI0
aI0
aI0
aI1
aI0
aI0
aI0
aa(lp2753
I1
aI0
aI0
aI0
aI0
aI0
aI1
aI0
aI0
aI0
aI0
aI0
aI0
aI0
aI0
aI0
aI0
aI1
aI0
aI1
aa(lp2754
I0
aI0
aI1
aI0
aI0
aI0
aI0
aI0
aI1
aI0
aI0
aI1
aI0
aI0
aI0
aI0
aI0
aI1
aI0
aI0
aa(lp2755
I0
aI0
aI0
aI1
aI0
aI0
aI0
aI0
aI1
aI0
aI0
aI1
aI0
aI0
aI1
aI0
aI0
aI0
aI0
aI0
aa(lp2756
I1
aI1
aI0
aI0
aI0
aI1
aI0
aI0
aI0
aI0
aI0
aI1
aI0
aI0
aI0
aI0
aI0
aI0
aI0
aI0
aa(lp2757
I1
aI1
aI0
aI0
aI0
aI0
aI0
aI0
aI1
aI0
aI0
aI0
aI1
aI0
aI0
aI0
aI0
aI0
aI0
aI0
aa(lp2758
I0
aI0
aI0
aI0
aI0
aI0
aI0
aI1
aI1
aI0
aI0
aI0
aI0
aI0
aI1
aI1
aI0
aI0
aI0
aI0
aa(lp2759
I0
aI0
aI1
aI0
aI1
aI0
aI1
aI0
aI0
aI0
aI0
aI0
aI0
aI0
aI0
aI0
aI0
aI0
aI1
aI0
aa(lp2760
I0
aI0
aI0
aI0
aI1
aI1
aI1
aI1
aI0
aI0
aI0
aI0
aI0
aI0
aI0
aI0
aI0
aI0
aI0
aI0
aa(lp2761
I0
aI1
aI0
aI0
aI0
aI1
aI0
aI0
aI0
aI1
aI0
aI0
aI0
aI0
aI0
aI0
aI0
aI1
aI0
aI0
aa(lp2762
I1
aI1
aI0
aI0
aI0
aI1
aI0
aI0
aI0
aI0
aI0
aI0
aI0
aI0
aI0
aI1
aI0
aI0
aI0
aI0
aa(lp2763
I0
aI1
aI0
aI0
aI0
aI0
aI0
aI1
aI0
aI1
aI0
aI0
aI0
aI0
aI0
aI0
aI0
aI1
aI0
aI0
aa(lp2764
I0
aI0
aI0
aI0
aI1
aI0
aI0
aI0
aI0
aI0
aI0
aI1
aI0
aI1
aI0
aI0
aI1
aI0
aI0
aI0
aa(lp2765
I0
aI0
aI1
aI0
aI0
aI0
aI0
aI0
aI0
aI0
aI0
aI0
aI0
aI1
aI0
aI0
aI0
aI1
aI0
aI1
aa(lp2766
I0
aI0
aI0
aI0
aI0
aI0
aI1
aI1
aI0
aI0
aI0
aI1
aI0
aI0
aI1
aI0
aI0
aI0
aI0
aI0
aa(lp2767
I0
aI1
aI0
aI0
aI1
aI0
aI0
aI0
aI0
aI0
aI0
aI0
aI0
aI0
aI1
aI0
aI0
aI0
aI0
aI0
aa(lp2768
I0
aI0
aI0
aI0
aI0
aI0
aI0
aI0
aI0
aI0
aI0
aI1
aI0
aI1
aI0
aI1
aI0
aI0
aI0
aI0
aa(lp2769
I1
aI1
aI0
aI0
aI0
aI1
aI0
aI0
aI1
aI0
aI0
aI0
aI0
aI0
aI0
aI0
aI0
aI0
aI0
aI0
aa(lp2770
I0
aI0
aI0
aI0
aI0
aI0
aI0
aI0
aI0
aI1
aI0
aI1
aI0
aI0
aI0
aI0
aI1
aI0
aI0
aI0
aa(lp2771
I0
aI1
aI0
aI1
aI1
aI0
aI0
aI0
aI0
aI0
aI0
aI1
aI0
aI0
aI0
aI0
aI0
aI0
aI0
aI0
aa(lp2772
I0
aI1
aI0
aI0
aI0
aI0
aI1
aI0
aI0
aI0
aI0
aI1
aI0
aI0
aI0
aI0
aI1
aI0
aI0
aI0
aa(lp2773
I1
aI0
aI0
aI1
aI0
aI0
aI0
aI0
aI0
aI0
aI0
aI0
aI0
aI1
aI0
aI0
aI0
aI0
aI0
aI0
aa(lp2774
I0
aI0
aI0
aI1
aI0
aI0
aI0
aI0
aI0
aI0
aI0
aI1
aI0
aI0
aI1
aI0
aI0
aI0
aI1
aI0
aa(lp2775
I0
aI0
aI0
aI0
aI0
aI0
aI0
aI0
aI1
aI0
aI0
aI1
aI0
aI0
aI0
aI0
aI1
aI0
aI1
aI0
aa(lp2776
I1
aI0
aI0
aI0
aI0
aI0
aI0
aI0
aI0
aI0
aI0
aI0
aI1
aI1
aI0
aI1
aI0
aI0
aI0
aI0
aa(lp2777
I0
aI0
aI0
aI0
aI1
aI0
aI1
aI0
aI1
aI0
aI0
aI0
aI0
aI0
aI0
aI0
aI0
aI0
aI0
aI0
aa(lp2778
I0
aI0
aI0
aI0
aI0
aI0
aI0
aI0
aI1
aI0
aI0
aI0
aI1
aI1
aI0
aI0
aI0
aI1
aI0
aI0
aa(lp2779
I0
aI1
aI1
aI0
aI0
aI0
aI0
aI1
aI1
aI0
aI0
aI0
aI0
aI0
aI0
aI0
aI0
aI0
aI0
aI0
aa(lp2780
I0
aI0
aI0
aI0
aI0
aI0
aI0
aI1
aI0
aI0
aI1
aI0
aI0
aI1
aI0
aI0
aI0
aI1
aI0
aI0
aa(lp2781
I0
aI0
aI0
aI0
aI1
aI0
aI0
aI0
aI1
aI0
aI0
aI0
aI1
aI0
aI0
aI0
aI0
aI1
aI0
aI0
aa(lp2782
I0
aI0
aI0
aI0
aI0
aI0
aI0
aI0
aI1
aI0
aI0
aI0
aI1
aI0
aI0
aI0
aI0
aI1
aI0
aI0
aa(lp2783
I0
aI0
aI0
aI1
aI0
aI0
aI0
aI0
aI0
aI0
aI0
aI0
aI1
aI0
aI0
aI0
aI1
aI1
aI0
aI0
aa(lp2784
I0
aI0
aI0
aI0
aI0
aI0
aI1
aI0
aI0
aI0
aI1
aI1
aI0
aI1
aI0
aI0
aI0
aI0
aI0
aI0
aa(lp2785
I1
aI0
aI0
aI0
aI0
aI0
aI1
aI0
aI0
aI0
aI0
aI1
aI0
aI0
aI0
aI0
aI0
aI0
aI0
aI1
aa(lp2786
I0
aI0
aI0
aI1
aI0
aI0
aI0
aI0
aI0
aI1
aI0
aI0
aI0
aI0
aI0
aI1
aI0
aI0
aI1
aI0
aa(lp2787
I0
aI0
aI1
aI0
aI1
aI0
aI0
aI0
aI0
aI0
aI1
aI0
aI0
aI0
aI0
aI0
aI0
aI1
aI0
aI0
aa(lp2788
I0
aI0
aI0
aI0
aI0
aI0
aI0
aI0
aI1
aI0
aI0
aI0
aI0
aI0
aI1
aI0
aI1
aI0
aI0
aI0
aa(lp2789
I0
aI0
aI1
aI1
aI0
aI0
aI0
aI0
aI1
aI0
aI0
aI0
aI0
aI0
aI0
aI0
aI0
aI0
aI1
aI0
aa(lp2790
I1
aI1
aI0
aI0
aI0
aI0
aI0
aI0
aI0
aI0
aI0
aI0
aI1
aI0
aI0
aI0
aI0
aI0
aI0
aI0
aa(lp2791
I1
aI0
aI0
aI0
aI1
aI0
aI1
aI0
aI0
aI0
aI0
aI0
aI0
aI0
aI0
aI0
aI0
aI0
aI0
aI1
aa(lp2792
I0
aI0
aI0
aI0
aI0
aI1
aI0
aI1
aI0
aI0
aI0
aI0
aI0
aI0
aI0
aI0
aI0
aI0
aI1
aI0
aa(lp2793
I0
aI1
aI0
aI0
aI0
aI0
aI0
aI0
aI1
aI0
aI0
aI0
aI0
aI0
aI1
aI0
aI0
aI0
aI0
aI0
aa(lp2794
I0
aI0
aI0
aI1
aI0
aI0
aI0
aI0
aI1
aI0
aI0
aI0
aI0
aI0
aI0
aI0
aI0
aI0
aI1
aI1
aa(lp2795
I0
aI1
aI0
aI0
aI0
aI1
aI0
aI0
aI0
aI0
aI0
aI0
aI0
aI0
aI0
aI0
aI0
aI1
aI1
aI0
aa(lp2796
I0
aI0
aI0
aI1
aI0
aI0
aI0
aI1
aI1
aI0
aI0
aI0
aI0
aI0
aI0
aI0
aI0
aI0
aI0
aI1
aa(lp2797
I0
aI0
aI0
aI0
aI0
aI0
aI0
aI0
aI0
aI0
aI0
aI0
aI0
aI0
aI0
aI0
aI1
aI0
aI1
aI0
aa(lp2798
I1
aI0
aI0
aI1
aI0
aI0
aI0
aI0
aI0
aI1
aI0
aI1
aI0
aI0
aI0
aI0
aI0
aI0
aI0
aI0
aa(lp2799
I0
aI0
aI0
aI0
aI0
aI0
aI0
aI0
aI0
aI1
aI0
aI1
aI0
aI0
aI0
aI0
aI1
aI0
aI0
aI0
aa(lp2800
I1
aI0
aI0
aI0
aI0
aI1
aI0
aI0
aI0
aI1
aI0
aI0
aI0
aI0
aI0
aI0
aI0
aI1
aI0
aI0
aa(lp2801
I0
aI0
aI0
aI0
aI0
aI1
aI0
aI0
aI1
aI0
aI0
aI0
aI0
aI0
aI0
aI1
aI1
aI0
aI0
aI0
aa(lp2802
I1
aI0
aI0
aI0
aI1
aI0
aI0
aI0
aI0
aI0
aI0
aI0
aI0
aI0
aI0
aI0
aI0
aI1
aI0
aI0
aa(lp2803
I0
aI0
aI0
aI0
aI0
aI0
aI0
aI0
aI1
aI1
aI0
aI0
aI1
aI0
aI0
aI0
aI0
aI1
aI0
aI0
aa(lp2804
I0
aI0
aI0
aI1
aI0
aI1
aI0
aI0
aI0
aI0
aI0
aI0
aI1
aI0
aI0
aI0
aI0
aI0
aI0
aI0
aa(lp2805
I0
aI0
aI0
aI0
aI0
aI0
aI1
aI0
aI0
aI0
aI0
aI1
aI0
aI1
aI0
aI0
aI0
aI0
aI0
aI1
aa(lp2806
I0
aI0
aI0
aI1
aI1
aI1
aI0
aI0
aI0
aI0
aI0
aI0
aI0
aI0
aI0
aI0
aI0
aI0
aI1
aI0
aa(lp2807
I0
aI1
aI0
aI0
aI0
aI0
aI1
aI0
aI0
aI1
aI0
aI0
aI0
aI0
aI0
aI0
aI0
aI0
aI0
aI0
aa(lp2808
I1
aI0
aI0
aI1
aI0
aI0
aI0
aI0
aI0
aI0
aI0
aI0
aI0
aI0
aI1
aI0
aI0
aI0
aI0
aI0
aa(lp2809
I0
aI0
aI0
aI0
aI0
aI0
aI1
aI0
aI0
aI0
aI0
aI1
aI1
aI0
aI0
aI1
aI0
aI0
aI0
aI0
aa(lp2810
I0
aI0
aI0
aI0
aI0
aI0
aI0
aI0
aI1
aI0
aI0
aI0
aI0
aI0
aI1
aI1
aI0
aI0
aI1
aI0
aa(lp2811
I0
aI0
aI0
aI0
aI1
aI1
aI0
aI0
aI0
aI0
aI0
aI1
aI0
aI0
aI1
aI0
aI0
aI0
aI0
aI0
aa(lp2812
I0
aI0
aI0
aI0
aI0
aI0
aI0
aI0
aI0
aI0
aI1
aI0
aI0
aI0
aI0
aI1
aI0
aI1
aI0
aI0
aa(lp2813
I0
aI0
aI0
aI0
aI0
aI0
aI1
aI1
aI0
aI0
aI0
aI0
aI1
aI0
aI0
aI0
aI0
aI0
aI0
aI0
aa(lp2814
I0
aI0
aI0
aI0
aI0
aI1
aI0
aI0
aI0
aI0
aI0
aI0
aI1
aI0
aI1
aI0
aI0
aI0
aI0
aI0
aa(lp2815
I0
aI0
aI0
aI1
aI0
aI0
aI0
aI0
aI0
aI1
aI0
aI0
aI0
aI0
aI0
aI0
aI1
aI1
aI0
aI0
aa(lp2816
I0
aI0
aI0
aI0
aI0
aI0
aI0
aI0
aI0
aI0
aI0
aI0
aI1
aI0
aI0
aI0
aI1
aI0
aI1
aI0
aa(lp2817
I0
aI0
aI0
aI1
aI0
aI0
aI0
aI0
aI1
aI0
aI0
aI1
aI1
aI0
aI0
aI0
aI0
aI0
aI0
aI0
aa(lp2818
I1
aI0
aI0
aI0
aI0
aI0
aI0
aI0
aI0
aI0
aI0
aI0
aI1
aI0
aI0
aI0
aI0
aI0
aI0
aI0
aa(lp2819
I0
aI0
aI0
aI0
aI0
aI0
aI1
aI0
aI0
aI0
aI0
aI0
aI1
aI0
aI0
aI0
aI0
aI1
aI1
aI0
aa(lp2820
I0
aI0
aI0
aI0
aI1
aI0
aI0
aI1
aI0
aI0
aI1
aI0
aI0
aI0
aI1
aI0
aI0
aI0
aI0
aI0
aa(lp2821
I0
aI0
aI0
aI0
aI0
aI1
aI0
aI0
aI0
aI0
aI1
aI0
aI1
aI0
aI0
aI0
aI0
aI1
aI0
aI0
aa(lp2822
I0
aI0
aI0
aI1
aI1
aI0
aI0
aI1
aI0
aI0
aI0
aI1
aI0
aI0
aI0
aI0
aI0
aI0
aI0
aI0
aa(lp2823
I0
aI0
aI0
aI0
aI1
aI0
aI0
aI0
aI0
aI0
aI0
aI0
aI1
aI1
aI0
aI0
aI0
aI0
aI1
aI0
aa(lp2824
I0
aI0
aI1
aI0
aI0
aI0
aI0
aI0
aI0
aI0
aI0
aI1
aI0
aI0
aI0
aI1
aI0
aI0
aI0
aI0
aa(lp2825
I0
aI1
aI0
aI0
aI0
aI0
aI0
aI0
aI0
aI0
aI0
aI1
aI0
aI0
aI0
aI0
aI0
aI1
aI0
aI1
aa(lp2826
I0
aI0
aI0
aI1
aI0
aI0
aI0
aI0
aI0
aI0
aI0
aI1
aI0
aI0
aI0
aI0
aI0
aI1
aI0
aI0
aa(lp2827
I1
aI0
aI1
aI0
aI0
aI0
aI0
aI0
aI0
aI0
aI1
aI0
aI1
aI0
aI0
aI0
aI0
aI0
aI0
aI0
aa(lp2828
I0
aI0
aI0
aI0
aI0
aI0
aI0
aI0
aI0
aI0
aI0
aI1
aI1
aI1
aI0
aI0
aI0
aI0
aI0
aI0
aa(lp2829
I0
aI0
aI0
aI0
aI0
aI0
aI1
aI0
aI1
aI0
aI0
aI0
aI0
aI0
aI0
aI0
aI0
aI0
aI1
aI1
aa(lp2830
I0
aI0
aI0
aI0
aI1
aI1
aI0
aI0
aI0
aI0
aI0
aI0
aI0
aI0
aI0
aI1
aI0
aI0
aI0
aI1
aa(lp2831
I0
aI0
aI0
aI1
aI0
aI1
aI0
aI0
aI1
aI0
aI0
aI0
aI1
aI0
aI0
aI0
aI0
aI0
aI0
aI0
aa(lp2832
I0
aI1
aI0
aI0
aI0
aI0
aI1
aI0
aI0
aI0
aI0
aI0
aI0
aI0
aI0
aI0
aI0
aI0
aI0
aI1
aa(lp2833
I0
aI0
aI0
aI0
aI0
aI0
aI0
aI0
aI1
aI1
aI0
aI0
aI0
aI0
aI0
aI0
aI1
aI0
aI0
aI1
aa(lp2834
I0
aI0
aI0
aI0
aI0
aI1
aI0
aI0
aI0
aI0
aI0
aI0
aI0
aI1
aI0
aI0
aI0
aI1
aI0
aI0
aa(lp2835
I0
aI0
aI0
aI0
aI0
aI0
aI0
aI1
aI0
aI0
aI0
aI0
aI1
aI0
aI0
aI0
aI0
aI0
aI1
aI1
aa(lp2836
I1
aI1
aI0
aI0
aI0
aI0
aI0
aI0
aI0
aI0
aI0
aI0
aI0
aI0
aI1
aI0
aI0
aI0
aI0
aI0
aa(lp2837
I0
aI0
aI0
aI0
aI0
aI0
aI1
aI0
aI0
aI0
aI1
aI1
aI0
aI0
aI0
aI1
aI0
aI0
aI0
aI0
aa(lp2838
I1
aI1
aI0
aI1
aI0
aI0
aI0
aI0
aI0
aI0
aI0
aI0
aI0
aI0
aI0
aI0
aI1
aI0
aI0
aI0
aa(lp2839
I0
aI0
aI0
aI0
aI1
aI0
aI0
aI1
aI0
aI0
aI0
aI0
aI0
aI0
aI0
aI0
aI0
aI0
aI1
aI1
aa(lp2840
I1
aI0
aI0
aI0
aI0
aI0
aI0
aI0
aI0
aI0
aI0
aI0
aI0
aI1
aI0
aI0
aI0
aI0
aI0
aI1
aa(lp2841
I0
aI0
aI0
aI1
aI1
aI1
aI0
aI0
aI0
aI0
aI0
aI0
aI0
aI0
aI0
aI1
aI0
aI0
aI0
aI0
aa(lp2842
I1
aI0
aI0
aI0
aI0
aI0
aI0
aI0
aI0
aI0
aI1
aI0
aI0
aI0
aI0
aI0
aI1
aI1
aI0
aI0
aa(lp2843
I0
aI0
aI0
aI1
aI0
aI1
aI0
aI0
aI0
aI0
aI0
aI0
aI0
aI0
aI0
aI0
aI0
aI1
aI0
aI0
aa(lp2844
I0
aI0
aI1
aI0
aI0
aI0
aI0
aI0
aI0
aI0
aI1
aI1
aI0
aI1
aI0
aI0
aI0
aI0
aI0
aI0
aa(lp2845
I0
aI0
aI0
aI0
aI0
aI0
aI0
aI0
aI0
aI1
aI1
aI0
aI0
aI0
aI0
aI0
aI0
aI1
aI0
aI0
aa(lp2846
I0
aI1
aI0
aI0
aI1
aI0
aI0
aI1
aI1
aI0
aI0
aI0
aI0
aI0
aI0
aI0
aI0
aI0
aI0
aI0
aa(lp2847
I0
aI0
aI0
aI1
aI0
aI0
aI0
aI0
aI0
aI1
aI0
aI0
aI0
aI0
aI0
aI0
aI0
aI0
aI1
aI0
aa(lp2848
I0
aI0
aI0
aI1
aI0
aI1
aI0
aI0
aI0
aI1
aI0
aI0
aI0
aI0
aI0
aI0
aI0
aI0
aI0
aI1
aa(lp2849
I0
aI1
aI0
aI0
aI1
aI0
aI0
aI0
aI0
aI0
aI1
aI0
aI0
aI0
aI0
aI0
aI0
aI1
aI0
aI0
aa(lp2850
I0
aI0
aI0
aI1
aI0
aI0
aI0
aI0
aI1
aI1
aI1
aI0
aI0
aI0
aI0
aI0
aI0
aI0
aI0
aI0
aa(lp2851
I1
aI0
aI1
aI0
aI0
aI0
aI0
aI0
aI0
aI0
aI0
aI0
aI0
aI1
aI0
aI0
aI0
aI0
aI1
aI0
aa(lp2852
I1
aI0
aI0
aI0
aI0
aI1
aI0
aI1
aI0
aI0
aI1
aI0
aI0
aI0
aI0
aI0
aI0
aI0
aI0
aI0
aa(lp2853
I0
aI1
aI0
aI0
aI1
aI0
aI0
aI0
aI0
aI0
aI1
aI0
aI0
aI1
aI0
aI0
aI0
aI0
aI0
aI0
aa(lp2854
I0
aI0
aI0
aI0
aI1
aI0
aI0
aI0
aI0
aI0
aI0
aI0
aI1
aI0
aI0
aI0
aI0
aI0
aI0
aI1
aa(lp2855
I1
aI0
aI0
aI0
aI0
aI0
aI1
aI0
aI0
aI0
aI0
aI0
aI0
aI0
aI0
aI1
aI0
aI0
aI1
aI0
aa(lp2856
I1
aI0
aI0
aI0
aI0
aI0
aI0
aI0
aI0
aI1
aI0
aI0
aI0
aI0
aI0
aI0
aI1
aI0
aI0
aI1
aa(lp2857
I0
aI0
aI0
aI0
aI0
aI0
aI0
aI0
aI1
aI1
aI0
aI0
aI1
aI1
aI0
aI0
aI0
aI0
aI0
aI0
aa(lp2858
I0
aI0
aI1
aI0
aI0
aI0
aI0
aI0
aI0
aI0
aI1
aI1
aI0
aI0
aI0
aI0
aI0
aI0
aI0
aI1
aa(lp2859
I0
aI0
aI1
aI1
aI0
aI0
aI1
aI0
aI0
aI0
aI0
aI0
aI0
aI0
aI0
aI0
aI0
aI0
aI0
aI0
aa(lp2860
I0
aI0
aI0
aI0
aI0
aI0
aI1
aI0
aI0
aI1
aI0
aI0
aI0
aI0
aI0
aI0
aI1
aI0
aI1
aI0
aa(lp2861
I0
aI0
aI0
aI0
aI0
aI0
aI1
aI1
aI0
aI0
aI0
aI0
aI0
aI0
aI1
aI0
aI0
aI0
aI1
aI0
aa(lp2862
I0
aI0
aI1
aI1
aI0
aI0
aI0
aI0
aI0
aI0
aI0
aI0
aI1
aI0
aI1
aI0
aI0
aI0
aI0
aI0
aa(lp2863
I1
aI0
aI0
aI0
aI0
aI0
aI1
aI0
aI0
aI0
aI0
aI0
aI0
aI0
aI1
aI0
aI0
aI0
aI0
aI1
aa(lp2864
I1
aI0
aI0
aI0
aI0
aI0
aI0
aI0
aI0
aI1
aI0
aI1
aI0
aI0
aI0
aI0
aI0
aI0
aI0
aI1
aa(lp2865
I1
aI1
aI0
aI0
aI0
aI0
aI0
aI0
aI0
aI0
aI0
aI0
aI1
aI0
aI0
aI0
aI1
aI0
aI0
aI0
aa(lp2866
I0
aI0
aI0
aI1
aI0
aI0
aI0
aI1
aI0
aI0
aI0
aI0
aI0
aI0
aI1
aI0
aI0
aI0
aI0
aI0
aa(lp2867
I0
aI0
aI0
aI0
aI0
aI0
aI1
aI0
aI1
aI0
aI0
aI0
aI0
aI1
aI0
aI1
aI0
aI0
aI0
aI0
aa(lp2868
I0
aI1
aI0
aI0
aI0
aI0
aI0
aI0
aI0
aI0
aI1
aI0
aI0
aI1
aI0
aI0
aI0
aI0
aI0
aI0
aa(lp2869
I0
aI0
aI0
aI0
aI1
aI0
aI0
aI0
aI0
aI0
aI0
aI1
aI1
aI0
aI0
aI0
aI1
aI0
aI0
aI0
aa(lp2870
I1
aI0
aI0
aI0
aI0
aI1
aI0
aI0
aI0
aI0
aI0
aI1
aI0
aI0
aI0
aI1
aI0
aI0
aI0
aI0
aa(lp2871
I1
aI0
aI0
aI0
aI0
aI1
aI0
aI0
aI0
aI0
aI1
aI0
aI0
aI0
aI0
aI0
aI0
aI0
aI0
aI0
aa(lp2872
I0
aI1
aI0
aI0
aI0
aI0
aI0
aI0
aI0
aI1
aI0
aI0
aI0
aI0
aI0
aI0
aI1
aI0
aI0
aI0
aa(lp2873
I0
aI0
aI0
aI0
aI0
aI0
aI1
aI0
aI1
aI0
aI0
aI0
aI0
aI0
aI1
aI0
aI0
aI1
aI0
aI0
aa(lp2874
I0
aI0
aI0
aI0
aI0
aI0
aI0
aI0
aI0
aI0
aI1
aI1
aI0
aI0
aI0
aI0
aI1
aI0
aI1
aI0
aa(lp2875
I1
aI0
aI0
aI0
aI0
aI0
aI0
aI0
aI1
aI0
aI0
aI0
aI0
aI0
aI0
aI0
aI0
aI1
aI0
aI1
aa(lp2876
I0
aI0
aI0
aI1
aI1
aI0
aI0
aI1
aI0
aI0
aI0
aI0
aI0
aI0
aI0
aI0
aI0
aI0
aI1
aI0
aa(lp2877
I0
aI1
aI0
aI0
aI0
aI1
aI0
aI1
aI0
aI1
aI0
aI0
aI0
aI0
aI0
aI0
aI0
aI0
aI0
aI0
aa(lp2878
I0
aI1
aI0
aI0
aI1
aI0
aI0
aI0
aI0
aI0
aI1
aI0
aI0
aI0
aI0
aI0
aI0
aI0
aI0
aI1
aa(lp2879
I0
aI0
aI0
aI0
aI1
aI0
aI0
aI0
aI1
aI0
aI0
aI0
aI0
aI0
aI1
aI0
aI1
aI0
aI0
aI0
aa(lp2880
I1
aI1
aI0
aI0
aI0
aI0
aI0
aI0
aI0
aI1
aI0
aI0
aI0
aI0
aI0
aI1
aI0
aI0
aI0
aI0
aa(lp2881
I0
aI0
aI0
aI0
aI0
aI0
aI0
aI0
aI0
aI0
aI0
aI0
aI1
aI1
aI0
aI0
aI0
aI1
aI0
aI0
aa(lp2882
I0
aI1
aI0
aI0
aI0
aI0
aI0
aI0
aI0
aI0
aI1
aI0
aI0
aI0
aI1
aI0
aI0
aI0
aI0
aI1
aa(lp2883
I1
aI1
aI1
aI0
aI0
aI0
aI0
aI1
aI0
aI0
aI0
aI0
aI0
aI0
aI0
aI0
aI0
aI0
aI0
aI0
aa(lp2884
I1
aI0
aI0
aI0
aI0
aI0
aI0
aI1
aI0
aI0
aI0
aI0
aI1
aI0
aI0
aI0
aI1
aI0
aI0
aI0
aa(lp2885
I0
aI0
aI0
aI0
aI0
aI0
aI0
aI0
aI1
aI0
aI1
aI0
aI0
aI0
aI0
aI0
aI0
aI1
aI0
aI0
aa(lp2886
I0
aI0
aI0
aI0
aI1
aI0
aI0
aI0
aI1
aI0
aI1
aI0
aI1
aI0
aI0
aI0
aI0
aI0
aI0
aI0
aa(lp2887
I1
aI0
aI0
aI0
aI1
aI0
aI1
aI0
aI0
aI0
aI0
aI0
aI0
aI0
aI0
aI0
aI0
aI0
aI0
aI0
aa(lp2888
I0
aI0
aI0
aI0
aI0
aI0
aI1
aI0
aI0
aI0
aI1
aI0
aI1
aI0
aI0
aI0
aI0
aI0
aI1
aI0
aa(lp2889
I0
aI1
aI0
aI0
aI0
aI1
aI0
aI0
aI0
aI0
aI0
aI0
aI0
aI0
aI0
aI1
aI1
aI0
aI0
aI0
aa(lp2890
I0
aI0
aI0
aI0
aI0
aI1
aI0
aI0
aI1
aI0
aI0
aI1
aI0
aI0
aI0
aI0
aI0
aI1
aI0
aI0
aa(lp2891
I1
aI0
aI0
aI0
aI0
aI0
aI0
aI0
aI0
aI1
aI0
aI0
aI0
aI0
aI0
aI1
aI0
aI0
aI0
aI0
aa(lp2892
I0
aI0
aI0
aI1
aI0
aI1
aI0
aI1
aI0
aI0
aI0
aI1
aI0
aI0
aI0
aI0
aI0
aI0
aI0
aI0
aa(lp2893
I1
aI1
aI0
aI0
aI0
aI0
aI0
aI0
aI1
aI0
aI0
aI0
aI0
aI0
aI0
aI0
aI0
aI1
aI0
aI0
aa(lp2894
I0
aI0
aI0
aI0
aI0
aI0
aI0
aI1
aI0
aI0
aI0
aI1
aI0
aI0
aI1
aI0
aI0
aI0
aI0
aI1
aa(lp2895
I0
aI0
aI1
aI0
aI0
aI0
aI0
aI0
aI1
aI0
aI0
aI0
aI1
aI0
aI0
aI0
aI0
aI0
aI1
aI0
aa(lp2896
I1
aI1
aI1
aI0
aI0
aI0
aI0
aI0
aI0
aI0
aI0
aI0
aI1
aI0
aI0
aI0
aI0
aI0
aI0
aI0
aa(lp2897
I0
aI1
aI0
aI0
aI1
aI0
aI0
aI0
aI0
aI0
aI0
aI0
aI0
aI0
aI1
aI1
aI0
aI0
aI0
aI0
aa(lp2898
I0
aI0
aI0
aI0
aI0
aI0
aI0
aI1
aI0
aI0
aI0
aI1
aI0
aI0
aI0
aI0
aI1
aI0
aI0
aI0
aa(lp2899
I0
aI0
aI0
aI0
aI1
aI0
aI0
aI0
aI1
aI0
aI0
aI0
aI0
aI0
aI0
aI0
aI1
aI0
aI0
aI1
aa(lp2900
I1
aI1
aI0
aI0
aI0
aI0
aI1
aI1
aI0
aI0
aI0
aI0
aI0
aI0
aI0
aI0
aI0
aI0
aI0
aI0
aa(lp2901
I1
aI0
aI0
aI1
aI0
aI0
aI0
aI1
aI0
aI0
aI0
aI0
aI0
aI0
aI0
aI0
aI1
aI0
aI0
aI0
aa(lp2902
I0
aI0
aI0
aI0
aI0
aI1
aI0
aI0
aI1
aI1
aI0
aI0
aI0
aI0
aI0
aI0
aI0
aI0
aI0
aI1
aa(lp2903
I0
aI0
aI1
aI0
aI0
aI0
aI0
aI0
aI0
aI0
aI0
aI0
aI1
aI0
aI1
aI0
aI0
aI0
aI0
aI0
aa(lp2904
I1
aI0
aI1
aI0
aI0
aI0
aI0
aI1
aI0
aI0
aI0
aI0
aI1
aI0
aI0
aI0
aI0
aI0
aI0
aI0
aa(lp2905
I0
aI0
aI0
aI1
aI0
aI0
aI1
aI0
aI0
aI0
aI0
aI0
aI0
aI1
aI0
aI0
aI0
aI0
aI0
aI0
aa(lp2906
I0
aI1
aI0
aI0
aI1
aI1
aI0
aI0
aI0
aI0
aI0
aI0
aI0
aI0
aI0
aI0
aI0
aI0
aI0
aI1
aa(lp2907
I0
aI0
aI0
aI1
aI0
aI1
aI0
aI0
aI0
aI0
aI1
aI0
aI1
aI0
aI0
aI0
aI0
aI0
aI0
aI0
aa(lp2908
I0
aI0
aI0
aI0
aI0
aI1
aI0
aI0
aI0
aI0
aI0
aI0
aI0
aI0
aI0
aI1
aI0
aI0
aI0
aI0
aa(lp2909
I0
aI0
aI0
aI0
aI0
aI0
aI0
aI0
aI0
aI0
aI1
aI0
aI0
aI0
aI1
aI0
aI0
aI0
aI0
aI1
aa(lp2910
I0
aI0
aI1
aI0
aI0
aI0
aI1
aI0
aI0
aI0
aI0
aI1
aI1
aI0
aI0
aI0
aI0
aI0
aI0
aI0
aa(lp2911
I0
aI0
aI1
aI0
aI0
aI1
aI0
aI0
aI0
aI0
aI0
aI0
aI0
aI0
aI0
aI0
aI1
aI0
aI0
aI0
aa(lp2912
I0
aI0
aI0
aI0
aI0
aI0
aI0
aI0
aI0
aI1
aI0
aI1
aI1
aI0
aI0
aI0
aI0
aI1
aI0
aI0
aa(lp2913
I1
aI0
aI0
aI0
aI0
aI1
aI1
aI0
aI0
aI0
aI0
aI0
aI0
aI1
aI0
aI0
aI0
aI0
aI0
aI0
aa(lp2914
I0
aI0
aI0
aI0
aI0
aI1
aI1
aI0
aI1
aI0
aI0
aI0
aI0
aI0
aI0
aI0
aI0
aI1
aI0
aI0
aa(lp2915
I0
aI0
aI0
aI0
aI0
aI0
aI1
aI0
aI0
aI0
aI0
aI1
aI1
aI0
aI0
aI1
aI0
aI0
aI0
aI0
aa(lp2916
I0
aI0
aI0
aI0
aI0
aI1
aI0
aI0
aI1
aI0
aI0
aI0
aI0
aI0
aI0
aI0
aI0
aI0
aI1
aI1
aa(lp2917
I0
aI0
aI1
aI0
aI0
aI0
aI1
aI0
aI0
aI0
aI1
aI0
aI0
aI0
aI0
aI0
aI0
aI0
aI0
aI1
aa(lp2918
I0
aI0
aI0
aI0
aI0
aI0
aI0
aI1
aI0
aI0
aI1
aI1
aI0
aI0
aI0
aI0
aI0
aI0
aI0
aI0
aa(lp2919
I0
aI1
aI0
aI0
aI0
aI0
aI0
aI1
aI1
aI0
aI0
aI0
aI0
aI0
aI0
aI0
aI0
aI0
aI0
aI0
aa(lp2920
I0
aI0
aI0
aI0
aI0
aI0
aI0
aI0
aI0
aI0
aI1
aI1
aI0
aI0
aI0
aI0
aI0
aI0
aI1
aI1
aa(lp2921
I1
aI0
aI1
aI0
aI0
aI0
aI0
aI0
aI0
aI0
aI0
aI1
aI0
aI0
aI0
aI0
aI0
aI0
aI0
aI1
aa(lp2922
I0
aI0
aI0
aI0
aI0
aI0
aI1
aI0
aI0
aI1
aI1
aI1
aI0
aI0
aI0
aI0
aI0
aI0
aI0
aI0
aa(lp2923
I1
aI0
aI0
aI1
aI0
aI1
aI0
aI0
aI0
aI0
aI0
aI0
aI0
aI0
aI1
aI0
aI0
aI0
aI0
aI0
aa(lp2924
I1
aI1
aI0
aI0
aI0
aI0
aI1
aI0
aI0
aI0
aI0
aI0
aI1
aI0
aI0
aI0
aI0
aI0
aI0
aI0
aa(lp2925
I0
aI0
aI0
aI0
aI0
aI0
aI0
aI0
aI0
aI0
aI1
aI0
aI0
aI1
aI0
aI1
aI0
aI0
aI1
aI0
aa(lp2926
I0
aI0
aI0
aI0
aI1
aI1
aI0
aI0
aI0
aI0
aI0
aI0
aI0
aI0
aI0
aI1
aI1
aI0
aI0
aI0
aa(lp2927
I0
aI0
aI1
aI0
aI0
aI0
aI0
aI0
aI0
aI0
aI1
aI1
aI0
aI0
aI1
aI0
aI0
aI0
aI0
aI0
aa(lp2928
I0
aI0
aI0
aI0
aI0
aI0
aI0
aI0
aI0
aI1
aI0
aI1
aI0
aI0
aI1
aI0
aI0
aI0
aI0
aI1
aa(lp2929
I0
aI0
aI0
aI0
aI0
aI1
aI1
aI0
aI0
aI0
aI1
aI0
aI0
aI0
aI0
aI1
aI0
aI0
aI0
aI0
aa(lp2930
I0
aI0
aI1
aI0
aI0
aI0
aI0
aI0
aI1
aI0
aI0
aI0
aI0
aI0
aI1
aI0
aI0
aI0
aI0
aI1
aa(lp2931
I1
aI0
aI0
aI0
aI1
aI0
aI0
aI0
aI0
aI0
aI1
aI0
aI0
aI1
aI0
aI0
aI0
aI0
aI0
aI0
aa(lp2932
I0
aI0
aI0
aI0
aI0
aI0
aI1
aI0
aI0
aI0
aI1
aI1
aI0
aI0
aI0
aI0
aI0
aI1
aI0
aI0
aa(lp2933
I0
aI1
aI0
aI0
aI0
aI0
aI1
aI0
aI0
aI0
aI0
aI0
aI0
aI0
aI0
aI1
aI0
aI1
aI0
aI0
aa(lp2934
I0
aI1
aI0
aI0
aI0
aI1
aI0
aI0
aI0
aI0
aI0
aI0
aI0
aI0
aI0
aI0
aI0
aI0
aI1
aI0
aa(lp2935
I0
aI0
aI0
aI0
aI0
aI1
aI0
aI0
aI1
aI0
aI0
aI0
aI1
aI0
aI0
aI1
aI0
aI0
aI0
aI0
aa(lp2936
I1
aI0
aI0
aI0
aI0
aI0
aI0
aI0
aI1
aI0
aI0
aI0
aI0
aI1
aI0
aI0
aI0
aI0
aI0
aI0
aa(lp2937
I0
aI0
aI0
aI0
aI0
aI0
aI0
aI1
aI0
aI0
aI0
aI0
aI0
aI0
aI0
aI0
aI1
aI1
aI1
aI0
aa(lp2938
I0
aI0
aI0
aI0
aI0
aI1
aI0
aI0
aI1
aI0
aI0
aI1
aI0
aI0
aI0
aI0
aI0
aI0
aI0
aI0
aa(lp2939
I0
aI0
aI0
aI1
aI1
aI0
aI0
aI0
aI0
aI0
aI1
aI0
aI0
aI0
aI0
aI1
aI0
aI0
aI0
aI0
aa(lp2940
I0
aI1
aI0
aI1
aI0
aI0
aI0
aI0
aI0
aI1
aI0
aI1
aI0
aI0
aI0
aI0
aI0
aI0
aI0
aI0
aa(lp2941
I0
aI1
aI0
aI0
aI0
aI0
aI1
aI0
aI0
aI1
aI0
aI0
aI0
aI0
aI0
aI1
aI0
aI0
aI0
aI0
aa(lp2942
I0
aI0
aI1
aI0
aI0
aI1
aI0
aI0
aI0
aI0
aI0
aI0
aI0
aI0
aI0
aI0
aI0
aI0
aI0
aI0
aa(lp2943
I0
aI0
aI0
aI0
aI0
aI0
aI0
aI0
aI0
aI0
aI1
aI0
aI0
aI0
aI1
aI0
aI0
aI1
aI0
aI0
aa(lp2944
I0
aI0
aI0
aI0
aI0
aI1
aI0
aI0
aI0
aI1
aI0
aI0
aI1
aI0
aI0
aI0
aI0
aI0
aI0
aI0
aa(lp2945
I0
aI0
aI0
aI1
aI1
aI0
aI0
aI0
aI0
aI0
aI1
aI0
aI0
aI0
aI0
aI1
aI0
aI0
aI0
aI0
aa(lp2946
I0
aI0
aI1
aI0
aI1
aI0
aI0
aI0
aI0
aI0
aI0
aI0
aI0
aI0
aI1
aI0
aI1
aI0
aI0
aI0
aa(lp2947
I0
aI1
aI0
aI0
aI0
aI0
aI0
aI0
aI0
aI1
aI0
aI1
aI0
aI0
aI0
aI0
aI1
aI0
aI0
aI0
aa(lp2948
I0
aI0
aI0
aI0
aI0
aI0
aI0
aI0
aI0
aI1
aI0
aI0
aI0
aI0
aI0
aI0
aI0
aI0
aI1
aI1
aa(lp2949
I0
aI0
aI1
aI0
aI0
aI0
aI0
aI0
aI0
aI0
aI1
aI0
aI0
aI0
aI1
aI0
aI0
aI0
aI0
aI0
aa(lp2950
I0
aI0
aI0
aI0
aI0
aI0
aI0
aI0
aI1
aI0
aI0
aI0
aI1
aI0
aI0
aI1
aI1
aI0
aI0
aI0
aa(lp2951
I0
aI0
aI0
aI0
aI0
aI0
aI0
aI0
aI1
aI1
aI0
aI0
aI0
aI0
aI0
aI0
aI0
aI0
aI0
aI1
aa(lp2952
I0
aI1
aI0
aI0
aI0
aI1
aI0
aI0
aI0
aI0
aI0
aI0
aI0
aI1
aI0
aI0
aI0
aI0
aI1
aI0
aa(lp2953
I0
aI1
aI0
aI0
aI0
aI1
aI0
aI1
aI0
aI0
aI0
aI0
aI0
aI0
aI1
aI0
aI0
aI0
aI0
aI0
aa(lp2954
I0
aI0
aI0
aI0
aI0
aI1
aI1
aI0
aI0
aI0
aI0
aI0
aI0
aI0
aI1
aI0
aI0
aI0
aI0
aI0
aa(lp2955
I1
aI0
aI0
aI1
aI0
aI0
aI0
aI0
aI0
aI1
aI1
aI0
aI0
aI0
aI0
aI0
aI0
aI0
aI0
aI0
aa(lp2956
I0
aI0
aI1
aI1
aI0
aI0
aI0
aI0
aI0
aI0
aI0
aI0
aI0
aI1
aI0
aI0
aI0
aI0
aI0
aI1
aa(lp2957
I0
aI0
aI0
aI1
aI0
aI0
aI0
aI0
aI1
aI0
aI1
aI0
aI0
aI0
aI0
aI0
aI0
aI0
aI1
aI0
aa(lp2958
I0
aI0
aI1
aI0
aI0
aI0
aI0
aI0
aI1
aI0
aI0
aI0
aI0
aI0
aI1
aI0
aI0
aI1
aI0
aI0
aa(lp2959
I0
aI0
aI0
aI0
aI0
aI0
aI1
aI1
aI0
aI0
aI0
aI0
aI0
aI1
aI0
aI0
aI0
aI0
aI1
aI0
aa(lp2960
I0
aI0
aI0
aI1
aI0
aI0
aI0
aI1
aI0
aI1
aI0
aI0
aI1
aI0
aI0
aI0
aI0
aI0
aI0
aI0
aa(lp2961
I0
aI0
aI0
aI0
aI0
aI0
aI0
aI0
aI0
aI1
aI0
aI0
aI0
aI0
aI1
aI1
aI0
aI0
aI0
aI0
aa(lp2962
I0
aI1
aI1
aI0
aI0
aI0
aI1
aI0
aI0
aI0
aI0
aI0
aI0
aI1
aI0
aI0
aI0
aI0
aI0
aI0
aa(lp2963
I0
aI0
aI1
aI0
aI0
aI0
aI1
aI0
aI0
aI0
aI1
aI0
aI0
aI0
aI0
aI0
aI0
aI0
aI0
aI1
aa(lp2964
I0
aI1
aI0
aI0
aI0
aI0
aI0
aI0
aI1
aI0
aI1
aI0
aI0
aI0
aI0
aI1
aI0
aI0
aI0
aI0
aa(lp2965
I0
aI0
aI0
aI0
aI1
aI1
aI0
aI0
aI0
aI0
aI0
aI0
aI1
aI0
aI0
aI0
aI0
aI0
aI0
aI0
aa(lp2966
I0
aI0
aI0
aI0
aI0
aI1
aI0
aI0
aI1
aI0
aI0
aI0
aI0
aI0
aI0
aI0
aI0
aI1
aI0
aI0
aa(lp2967
I1
aI0
aI0
aI0
aI0
aI0
aI0
aI0
aI0
aI0
aI0
aI0
aI0
aI0
aI0
aI0
aI0
aI1
aI0
aI0
aa(lp2968
I0
aI0
aI1
aI0
aI0
aI1
aI0
aI0
aI0
aI0
aI0
aI0
aI0
aI0
aI1
aI0
aI0
aI0
aI0
aI1
aa(lp2969
I0
aI0
aI1
aI0
aI0
aI0
aI0
aI0
aI0
aI0
aI0
aI1
aI0
aI0
aI0
aI1
aI0
aI0
aI0
aI1
aa(lp2970
I1
aI0
aI0
aI0
aI0
aI1
aI0
aI0
aI1
aI0
aI0
aI0
aI0
aI1
aI0
aI0
aI0
aI0
aI0
aI0
aa(lp2971
I0
aI0
aI1
aI0
aI0
aI1
aI0
aI0
aI0
aI0
aI0
aI0
aI1
aI0
aI0
aI0
aI0
aI1
aI0
aI0
aa(lp2972
I1
aI0
aI0
aI1
aI0
aI0
aI0
aI1
aI0
aI0
aI0
aI0
aI0
aI0
aI0
aI0
aI0
aI1
aI0
aI0
aa(lp2973
I0
aI1
aI0
aI0
aI0
aI0
aI0
aI0
aI1
aI0
aI0
aI1
aI0
aI0
aI0
aI0
aI0
aI1
aI0
aI0
aa(lp2974
I0
aI0
aI0
aI0
aI0
aI1
aI0
aI0
aI0
aI0
aI1
aI0
aI0
aI1
aI0
aI0
aI0
aI0
aI0
aI0
aa(lp2975
I1
aI0
aI0
aI0
aI0
aI0
aI1
aI0
aI0
aI0
aI0
aI0
aI0
aI0
aI1
aI0
aI1
aI0
aI0
aI0
aa(lp2976
I1
aI0
aI0
aI0
aI0
aI1
aI1
aI0
aI0
aI0
aI0
aI0
aI0
aI1
aI0
aI0
aI0
aI0
aI0
aI0
aa(lp2977
I0
aI0
aI0
aI0
aI0
aI0
aI1
aI0
aI0
aI0
aI1
aI0
aI0
aI0
aI0
aI1
aI0
aI0
aI0
aI1
aa(lp2978
I0
aI1
aI0
aI0
aI0
aI0
aI0
aI0
aI1
aI0
aI0
aI1
aI1
aI0
aI0
aI0
aI0
aI0
aI0
aI0
aa(lp2979
I0
aI0
aI0
aI0
aI0
aI1
aI1
aI0
aI0
aI0
aI0
aI0
aI0
aI0
aI0
aI0
aI0
aI1
aI1
aI0
aa(lp2980
I0
aI0
aI0
aI0
aI1
aI0
aI0
aI1
aI0
aI0
aI0
aI1
aI0
aI0
aI0
aI0
aI1
aI0
aI0
aI0
aa(lp2981
I0
aI1
aI0
aI0
aI0
aI0
aI1
aI0
aI1
aI1
aI0
aI0
aI0
aI0
aI0
aI0
aI0
aI0
aI0
aI0
aa(lp2982
I0
aI0
aI0
aI0
aI0
aI0
aI0
aI0
aI0
aI0
aI1
aI0
aI0
aI1
aI0
aI0
aI1
aI0
aI1
aI0
aa(lp2983
I0
aI1
aI0
aI0
aI0
aI0
aI0
aI0
aI1
aI0
aI1
aI0
aI0
aI0
aI0
aI0
aI0
aI1
aI0
aI0
aa(lp2984
I0
aI0
aI0
aI1
aI0
aI0
aI0
aI0
aI0
aI1
aI0
aI0
aI0
aI0
aI0
aI0
aI0
aI1
aI0
aI0
aa(lp2985
I0
aI0
aI0
aI0
aI0
aI0
aI0
aI1
aI0
aI0
aI0
aI0
aI0
aI0
aI0
aI0
aI0
aI0
aI1
aI1
aa(lp2986
I0
aI0
aI0
aI0
aI1
aI0
aI1
aI0
aI0
aI0
aI0
aI0
aI1
aI0
aI0
aI0
aI1
aI0
aI0
aI0
aa(lp2987
I0
aI0
aI1
aI1
aI0
aI0
aI0
aI0
aI0
aI0
aI0
aI0
aI1
aI0
aI1
aI0
aI0
aI0
aI0
aI0
aa(lp2988
I0
aI0
aI1
aI0
aI0
aI0
aI0
aI0
aI0
aI1
aI1
aI0
aI0
aI0
aI0
aI0
aI0
aI1
aI0
aI0
aa(lp2989
I0
aI0
aI0
aI0
aI0
aI1
aI1
aI0
aI1
aI0
aI0
aI0
aI0
aI0
aI0
aI0
aI1
aI0
aI0
aI0
aa(lp2990
I0
aI0
aI0
aI0
aI0
aI0
aI1
aI0
aI1
aI0
aI0
aI1
aI0
aI0
aI0
aI0
aI1
aI0
aI0
aI0
aa(lp2991
I1
aI0
aI0
aI0
aI0
aI0
aI0
aI0
aI0
aI0
aI0
aI0
aI1
aI0
aI1
aI0
aI0
aI1
aI0
aI0
aa(lp2992
I0
aI0
aI0
aI0
aI0
aI0
aI0
aI0
aI0
aI0
aI0
aI0
aI1
aI0
aI0
aI0
aI1
aI0
aI1
aI0
aa(lp2993
I0
aI0
aI0
aI1
aI0
aI0
aI0
aI0
aI0
aI0
aI1
aI0
aI0
aI0
aI0
aI0
aI1
aI0
aI0
aI0
aa(lp2994
I1
aI0
aI0
aI0
aI0
aI0
aI0
aI0
aI0
aI0
aI0
aI0
aI0
aI0
aI1
aI1
aI0
aI0
aI0
aI0
aa(lp2995
I0
aI0
aI0
aI0
aI0
aI0
aI0
aI1
aI0
aI0
aI0
aI0
aI1
aI0
aI1
aI0
aI0
aI0
aI0
aI1
aa(lp2996
I0
aI0
aI0
aI0
aI0
aI0
aI0
aI1
aI0
aI1
aI0
aI0
aI0
aI0
aI0
aI1
aI0
aI1
aI0
aI0
aa(lp2997
I0
aI0
aI0
aI0
aI0
aI0
aI1
aI0
aI0
aI0
aI0
aI0
aI0
aI0
aI1
aI0
aI0
aI0
aI1
aI0
aa(lp2998
I0
aI0
aI0
aI0
aI0
aI0
aI1
aI1
aI1
aI0
aI1
aI0
aI0
aI0
aI0
aI0
aI0
aI0
aI0
aI0
aa(lp2999
I0
aI0
aI0
aI0
aI0
aI0
aI0
aI0
aI0
aI0
aI0
aI0
aI1
aI1
aI0
aI1
aI0
aI0
aI0
aI0
aa(lp3000
I0
aI1
aI0
aI0
aI1
aI0
aI0
aI0
aI1
aI0
aI0
aI0
aI0
aI1
aI0
aI0
aI0
aI0
aI0
aI0
aa(lp3001
I0
aI0
aI0
aI0
aI0
aI0
aI0
aI0
aI1
aI0
aI0
aI1
aI0
aI0
aI0
aI0
aI1
aI0
aI0
aI0
aa(lp3002
I0
aI0
aI0
aI1
aI0
aI0
aI0
aI0
aI0
aI0
aI1
aI0
aI0
aI0
aI0
aI0
aI0
aI1
aI0
aI0
aa(lp3003
I1
aI0
aI0
aI0
aI0
aI0
aI0
aI0
aI0
aI1
aI0
aI0
aI1
aI0
aI0
aI0
aI0
aI1
aI0
aI0
aa(lp3004
I0
aI0
aI0
aI0
aI0
aI1
aI1
aI0
aI0
aI0
aI0
aI0
aI1
aI0
aI0
aI1
aI0
aI0
aI0
aI0
aa(lp3005
I0
aI1
aI0
aI0
aI0
aI0
aI0
aI1
aI0
aI0
aI0
aI0
aI0
aI0
aI0
aI1
aI0
aI0
aI0
aI0
aa(lp3006
I0
aI0
aI0
aI1
aI1
aI0
aI0
aI0
aI0
aI0
aI0
aI0
aI1
aI1
aI0
aI0
aI0
aI0
aI0
aI0
aa(lp3007
I0
aI1
aI0
aI0
aI0
aI1
aI0
aI0
aI0
aI0
aI0
aI0
aI0
aI0
aI0
aI0
aI1
aI1
aI0
aI0
aa(lp3008
I0
aI0
aI0
aI1
aI0
aI0
aI0
aI0
aI0
aI0
aI0
aI0
aI1
aI0
aI1
aI0
aI1
aI0
aI0
aI0
aa(lp3009
I0
aI1
aI0
aI0
aI0
aI1
aI0
aI0
aI0
aI0
aI1
aI0
aI0
aI1
aI0
aI0
aI0
aI0
aI0
aI0
aa(lp3010
I0
aI0
aI0
aI0
aI0
aI1
aI0
aI0
aI0
aI0
aI0
aI0
aI0
aI0
aI0
aI1
aI1
aI1
aI0
aI0
aa(lp3011
I1
aI0
aI0
aI1
aI0
aI0
aI0
aI0
aI0
aI0
aI0
aI0
aI1
aI0
aI0
aI0
aI0
aI0
aI0
aI1
aa(lp3012
I0
aI0
aI0
aI1
aI0
aI0
aI0
aI0
aI1
aI0
aI0
aI1
aI0
aI1
aI0
aI0
aI0
aI0
aI0
aI0
aa(lp3013
I0
aI0
aI0
aI0
aI0
aI0
aI0
aI0
aI0
aI1
aI0
aI0
aI0
aI0
aI0
aI0
aI1
aI0
aI1
aI0
aa(lp3014
I0
aI0
aI0
aI0
aI0
aI0
aI0
aI0
aI0
aI1
aI1
aI0
aI0
aI1
aI1
aI0
aI0
aI0
aI0
aI0
aa(lp3015
I0
aI0
aI0
aI0
aI0
aI0
aI0
aI1
aI0
aI0
aI0
aI1
aI0
aI1
aI0
aI0
aI0
aI0
aI0
aI0
aa(lp3016
I1
aI0
aI0
aI1
aI1
aI1
aI0
aI0
aI0
aI0
aI0
aI0
aI0
aI0
aI0
aI0
aI0
aI0
aI0
aI0
aa(lp3017
I0
aI1
aI0
aI0
aI0
aI0
aI1
aI0
aI0
aI0
aI0
aI1
aI0
aI0
aI1
aI0
aI0
aI0
aI0
aI0
aa(lp3018
I0
aI1
aI0
aI0
aI0
aI1
aI0
aI0
aI0
aI0
aI0
aI1
aI1
aI0
aI0
aI0
aI0
aI0
aI0
aI0
aa(lp3019
I0
aI1
aI0
aI0
aI0
aI1
aI0
aI0
aI1
aI0
aI1
aI0
aI0
aI0
aI0
aI0
aI0
aI0
aI0
aI0
aa(lp3020
I0
aI0
aI0
aI0
aI0
aI1
aI0
aI0
aI0
aI1
aI0
aI0
aI0
aI0
aI0
aI1
aI1
aI0
aI0
aI0
aa(lp3021
I0
aI0
aI0
aI0
aI0
aI0
aI1
aI0
aI0
aI1
aI0
aI0
aI0
aI0
aI0
aI0
aI0
aI1
aI1
aI0
aa(lp3022
I1
aI0
aI0
aI0
aI0
aI0
aI0
aI0
aI0
aI0
aI0
aI0
aI0
aI1
aI0
aI0
aI0
aI1
aI0
aI0
aa(lp3023
I0
aI0
aI0
aI0
aI0
aI0
aI0
aI1
aI0
aI0
aI0
aI0
aI0
aI0
aI0
aI0
aI1
aI0
aI1
aI0
aa(lp3024
I0
aI0
aI0
aI0
aI0
aI0
aI0
aI0
aI0
aI0
aI0
aI0
aI0
aI0
aI1
aI0
aI1
aI1
aI0
aI0
aa(lp3025
I1
aI0
aI0
aI0
aI1
aI0
aI0
aI0
aI1
aI0
aI0
aI1
aI0
aI0
aI0
aI0
aI0
aI0
aI0
aI0
aa(lp3026
I0
aI0
aI0
aI0
aI1
aI0
aI1
aI1
aI0
aI0
aI0
aI0
aI0
aI0
aI0
aI1
aI0
aI0
aI0
aI0
aa(lp3027
I0
aI0
aI0
aI0
aI0
aI0
aI0
aI0
aI0
aI0
aI1
aI1
aI0
aI0
aI1
aI0
aI1
aI0
aI0
aI0
aa(lp3028
I0
aI0
aI0
aI1
aI0
aI0
aI0
aI0
aI1
aI1
aI0
aI0
aI0
aI0
aI0
aI0
aI0
aI0
aI0
aI0
aa(lp3029
I1
aI0
aI0
aI0
aI0
aI0
aI0
aI1
aI1
aI0
aI0
aI0
aI0
aI0
aI0
aI1
aI0
aI0
aI0
aI0
aa(lp3030
I0
aI0
aI0
aI1
aI0
aI0
aI0
aI1
aI0
aI0
aI1
aI0
aI0
aI0
aI0
aI0
aI0
aI0
aI0
aI1
aa(lp3031
I0
aI1
aI0
aI1
aI0
aI1
aI0
aI1
aI0
aI0
aI0
aI0
aI0
aI0
aI0
aI0
aI0
aI0
aI0
aI0
aa(lp3032
I0
aI0
aI0
aI0
aI0
aI0
aI0
aI0
aI0
aI0
aI0
aI0
aI0
aI0
aI1
aI0
aI0
aI1
aI0
aI0
aa(lp3033
I0
aI0
aI1
aI0
aI0
aI0
aI0
aI0
aI1
aI0
aI0
aI0
aI1
aI0
aI0
aI1
aI0
aI0
aI0
aI0
aa(lp3034
I1
aI0
aI1
aI0
aI0
aI0
aI0
aI0
aI0
aI0
aI0
aI0
aI0
aI1
aI0
aI0
aI0
aI1
aI0
aI0
aa(lp3035
I1
aI0
aI0
aI0
aI0
aI0
aI0
aI0
aI0
aI1
aI0
aI0
aI0
aI0
aI0
aI0
aI0
aI0
aI0
aI1
aasS'object_num'
p3036
I1000
sb.